

Microchip MPLAB XC8 Assembler V2.32 build 20210201212658 
                                                                                               Mon Oct 25 16:45:12 2021

Microchip MPLAB XC8 C Compiler v2.32 (Free license) build 20210201212658 Og1 
     1                           	processor	16F18446
     2                           	pagewidth 120
     3                           	opt	flic
     4                           	psect	idataBANK0,global,class=CODE,delta=2,noexec
     5                           	psect	nvBANK0,global,class=BANK0,space=1,delta=1,noexec
     6                           	psect	cinit,global,class=CODE,merge=1,delta=2
     7                           	psect	bssBANK0,global,class=BANK0,space=1,delta=1,noexec
     8                           	psect	dataBANK0,global,class=BANK0,space=1,delta=1,noexec
     9                           	psect	bssBANK1,global,class=BANK1,space=1,delta=1,noexec
    10                           	psect	clrtext,global,class=CODE,delta=2
    11                           	psect	cstackCOMMON,global,class=COMMON,space=1,delta=1,noexec
    12                           	psect	cstackBANK0,global,class=BANK0,space=1,delta=1,noexec
    13                           	psect	maintext,global,class=CODE,merge=1,split=1,delta=2
    14                           	psect	text1,local,class=CODE,merge=1,delta=2
    15                           	psect	text2,local,class=CODE,merge=1,delta=2
    16                           	psect	text3,local,class=CODE,merge=1,delta=2
    17                           	psect	text4,local,class=CODE,merge=1,delta=2
    18                           	psect	text5,local,class=CODE,merge=1,delta=2
    19                           	psect	text6,local,class=CODE,merge=1,delta=2
    20                           	psect	text7,local,class=CODE,merge=1,delta=2
    21                           	psect	intentry,global,class=CODE,delta=2
    22                           	psect	text9,local,class=CODE,merge=1,delta=2
    23                           	psect	text10,local,class=CODE,merge=1,delta=2
    24                           	psect	text11,local,class=CODE,merge=1,delta=2
    25                           	psect	text12,local,class=CODE,merge=1,delta=2
    26                           	psect	text13,local,class=CODE,merge=1,delta=2
    27                           	psect	text14,local,class=CODE,merge=1,delta=2
    28                           	psect	text15,local,class=CODE,merge=1,delta=2
    29                           	psect	text16,local,class=CODE,merge=1,delta=2
    30                           	psect	config,global,abs,ovrld,class=CONFIG,space=4,delta=2,noexec
    31                           	dabs	1,0x7E,2
    32  0000                     
    33                           ; Version 2.35
    34                           ; Generated 13/04/2021 GMT
    35                           ; 
    36                           ; Copyright © 2021, Microchip Technology Inc. and its subsidiaries ("Microchip")
    37                           ; All rights reserved.
    38                           ; 
    39                           ; This software is developed by Microchip Technology Inc. and its subsidiaries ("Microch
      +                          ip").
    40                           ; 
    41                           ; Redistribution and use in source and binary forms, with or without modification, are
    42                           ; permitted provided that the following conditions are met:
    43                           ; 
    44                           ;     1. Redistributions of source code must retain the above copyright notice, this lis
      +                          t of
    45                           ;        conditions and the following disclaimer.
    46                           ; 
    47                           ;     2. Redistributions in binary form must reproduce the above copyright notice, this 
      +                          list
    48                           ;        of conditions and the following disclaimer in the documentation and/or other
    49                           ;        materials provided with the distribution. Publication is not required when
    50                           ;        this file is used in an embedded application.
    51                           ; 
    52                           ;     3. Microchip's name may not be used to endorse or promote products derived from th
      +                          is
    53                           ;        software without specific prior written permission.
    54                           ; 
    55                           ; THIS SOFTWARE IS PROVIDED BY MICROCHIP "AS IS" AND ANY EXPRESS OR IMPLIED WARRANTIES,
    56                           ; INCLUDING, BUT NOT LIMITED TO, THE IMPLIED WARRANTIES OF MERCHANTABILITY AND FITNESS F
      +                          OR
    57                           ; PURPOSE ARE DISCLAIMED.  IN NO EVENT SHALL MICROCHIP BE LIABLE FOR ANY DIRECT, INDIREC
      +                          T,
    58                           ; INCIDENTAL, SPECIAL, EXEMPLARY, OR CONSEQUENTIAL DAMAGES (INCLUDING BUT NOT LIMITED TO
    59                           ; PROCUREMENT OF SUBSTITUTE GOODS OR SERVICES; LOSS OF USE, DATA OR PROFITS; OR BUSINESS
    60                           ; INTERRUPTION) HOWSOEVER CAUSED AND ON ANY THEORY OF LIABILITY, WHETHER IN CONTRACT, ST
      +                          RICT
    61                           ; LIABILITY, OR TORT (INCLUDING NEGLIGENCE OR OTHERWISE) ARISING IN ANY WAY OUT OF THE U
      +                          SE OF
    62                           ; THIS SOFTWARE, EVEN IF ADVISED OF THE POSSIBILITY OF SUCH DAMAGE.
    63                           ; 
    64                           ; 
    65                           ; Code-generator required, PIC16F18446 Definitions
    66                           ; 
    67                           ; SFR Addresses
    68  0000                     	;# 
    69  0001                     	;# 
    70  0002                     	;# 
    71  0003                     	;# 
    72  0004                     	;# 
    73  0005                     	;# 
    74  0006                     	;# 
    75  0007                     	;# 
    76  0008                     	;# 
    77  0009                     	;# 
    78  000A                     	;# 
    79  000B                     	;# 
    80  000C                     	;# 
    81  000D                     	;# 
    82  000E                     	;# 
    83  0012                     	;# 
    84  0013                     	;# 
    85  0014                     	;# 
    86  0018                     	;# 
    87  0019                     	;# 
    88  001A                     	;# 
    89  008C                     	;# 
    90  008C                     	;# 
    91  008D                     	;# 
    92  008E                     	;# 
    93  008E                     	;# 
    94  008F                     	;# 
    95  0090                     	;# 
    96  0090                     	;# 
    97  0091                     	;# 
    98  0092                     	;# 
    99  0092                     	;# 
   100  0093                     	;# 
   101  0094                     	;# 
   102  0094                     	;# 
   103  0095                     	;# 
   104  0096                     	;# 
   105  0096                     	;# 
   106  0097                     	;# 
   107  0098                     	;# 
   108  0099                     	;# 
   109  009A                     	;# 
   110  009B                     	;# 
   111  009B                     	;# 
   112  009C                     	;# 
   113  009D                     	;# 
   114  009D                     	;# 
   115  009E                     	;# 
   116  009F                     	;# 
   117  010C                     	;# 
   118  010C                     	;# 
   119  010D                     	;# 
   120  010E                     	;# 
   121  010F                     	;# 
   122  010F                     	;# 
   123  0110                     	;# 
   124  0111                     	;# 
   125  0112                     	;# 
   126  0113                     	;# 
   127  0114                     	;# 
   128  0115                     	;# 
   129  0116                     	;# 
   130  0117                     	;# 
   131  0118                     	;# 
   132  0119                     	;# 
   133  0119                     	;# 
   134  0119                     	;# 
   135  011A                     	;# 
   136  011A                     	;# 
   137  011A                     	;# 
   138  011B                     	;# 
   139  011B                     	;# 
   140  011B                     	;# 
   141  011B                     	;# 
   142  011B                     	;# 
   143  011C                     	;# 
   144  011C                     	;# 
   145  011C                     	;# 
   146  011D                     	;# 
   147  011D                     	;# 
   148  011D                     	;# 
   149  011E                     	;# 
   150  011E                     	;# 
   151  011E                     	;# 
   152  011F                     	;# 
   153  011F                     	;# 
   154  011F                     	;# 
   155  011F                     	;# 
   156  011F                     	;# 
   157  018C                     	;# 
   158  018D                     	;# 
   159  018E                     	;# 
   160  018F                     	;# 
   161  0190                     	;# 
   162  0191                     	;# 
   163  0192                     	;# 
   164  0196                     	;# 
   165  0197                     	;# 
   166  0198                     	;# 
   167  0199                     	;# 
   168  019A                     	;# 
   169  019B                     	;# 
   170  019C                     	;# 
   171  020C                     	;# 
   172  020D                     	;# 
   173  020E                     	;# 
   174  020E                     	;# 
   175  020F                     	;# 
   176  020F                     	;# 
   177  0210                     	;# 
   178  0210                     	;# 
   179  0211                     	;# 
   180  0211                     	;# 
   181  0212                     	;# 
   182  0213                     	;# 
   183  0214                     	;# 
   184  0214                     	;# 
   185  0215                     	;# 
   186  0215                     	;# 
   187  0216                     	;# 
   188  0216                     	;# 
   189  0217                     	;# 
   190  0217                     	;# 
   191  0218                     	;# 
   192  0219                     	;# 
   193  021A                     	;# 
   194  021A                     	;# 
   195  021B                     	;# 
   196  021B                     	;# 
   197  021C                     	;# 
   198  021C                     	;# 
   199  021D                     	;# 
   200  021D                     	;# 
   201  021E                     	;# 
   202  021F                     	;# 
   203  028C                     	;# 
   204  028C                     	;# 
   205  028D                     	;# 
   206  028D                     	;# 
   207  028E                     	;# 
   208  028F                     	;# 
   209  0290                     	;# 
   210  0291                     	;# 
   211  0292                     	;# 
   212  0292                     	;# 
   213  0293                     	;# 
   214  0293                     	;# 
   215  0294                     	;# 
   216  0295                     	;# 
   217  0296                     	;# 
   218  0297                     	;# 
   219  0298                     	;# 
   220  0298                     	;# 
   221  0299                     	;# 
   222  0299                     	;# 
   223  029A                     	;# 
   224  029B                     	;# 
   225  029C                     	;# 
   226  029D                     	;# 
   227  029F                     	;# 
   228  030C                     	;# 
   229  030C                     	;# 
   230  030D                     	;# 
   231  030E                     	;# 
   232  030F                     	;# 
   233  0310                     	;# 
   234  0310                     	;# 
   235  0311                     	;# 
   236  0312                     	;# 
   237  0313                     	;# 
   238  0314                     	;# 
   239  0314                     	;# 
   240  0315                     	;# 
   241  0316                     	;# 
   242  0317                     	;# 
   243  0318                     	;# 
   244  0318                     	;# 
   245  0319                     	;# 
   246  031A                     	;# 
   247  031B                     	;# 
   248  038C                     	;# 
   249  038C                     	;# 
   250  038D                     	;# 
   251  038E                     	;# 
   252  0390                     	;# 
   253  0390                     	;# 
   254  0391                     	;# 
   255  0392                     	;# 
   256  048C                     	;# 
   257  048C                     	;# 
   258  048D                     	;# 
   259  048E                     	;# 
   260  048F                     	;# 
   261  048F                     	;# 
   262  0490                     	;# 
   263  0491                     	;# 
   264  0492                     	;# 
   265  0492                     	;# 
   266  0493                     	;# 
   267  0494                     	;# 
   268  0495                     	;# 
   269  0495                     	;# 
   270  0496                     	;# 
   271  0497                     	;# 
   272  0498                     	;# 
   273  0499                     	;# 
   274  049A                     	;# 
   275  049B                     	;# 
   276  049C                     	;# 
   277  049D                     	;# 
   278  058C                     	;# 
   279  058C                     	;# 
   280  058D                     	;# 
   281  058E                     	;# 
   282  058F                     	;# 
   283  058F                     	;# 
   284  0590                     	;# 
   285  0591                     	;# 
   286  0592                     	;# 
   287  0593                     	;# 
   288  059C                     	;# 
   289  059C                     	;# 
   290  059D                     	;# 
   291  059D                     	;# 
   292  059E                     	;# 
   293  059F                     	;# 
   294  060C                     	;# 
   295  060C                     	;# 
   296  060D                     	;# 
   297  060D                     	;# 
   298  060E                     	;# 
   299  060F                     	;# 
   300  0610                     	;# 
   301  0611                     	;# 
   302  0612                     	;# 
   303  0613                     	;# 
   304  0614                     	;# 
   305  0616                     	;# 
   306  0616                     	;# 
   307  0617                     	;# 
   308  0617                     	;# 
   309  0618                     	;# 
   310  0619                     	;# 
   311  061A                     	;# 
   312  061B                     	;# 
   313  061C                     	;# 
   314  061D                     	;# 
   315  061E                     	;# 
   316  070C                     	;# 
   317  070D                     	;# 
   318  070E                     	;# 
   319  070F                     	;# 
   320  0710                     	;# 
   321  0711                     	;# 
   322  0712                     	;# 
   323  0713                     	;# 
   324  0714                     	;# 
   325  0716                     	;# 
   326  0717                     	;# 
   327  0718                     	;# 
   328  0719                     	;# 
   329  071A                     	;# 
   330  071B                     	;# 
   331  071C                     	;# 
   332  071D                     	;# 
   333  071E                     	;# 
   334  0796                     	;# 
   335  0797                     	;# 
   336  0798                     	;# 
   337  0799                     	;# 
   338  079A                     	;# 
   339  079B                     	;# 
   340  079C                     	;# 
   341  079D                     	;# 
   342  080C                     	;# 
   343  080D                     	;# 
   344  080E                     	;# 
   345  080F                     	;# 
   346  0810                     	;# 
   347  0811                     	;# 
   348  0812                     	;# 
   349  0813                     	;# 
   350  0814                     	;# 
   351  081A                     	;# 
   352  081A                     	;# 
   353  081B                     	;# 
   354  081C                     	;# 
   355  081C                     	;# 
   356  081D                     	;# 
   357  081E                     	;# 
   358  081F                     	;# 
   359  088C                     	;# 
   360  088D                     	;# 
   361  088E                     	;# 
   362  088F                     	;# 
   363  0890                     	;# 
   364  0891                     	;# 
   365  0892                     	;# 
   366  0893                     	;# 
   367  0895                     	;# 
   368  0896                     	;# 
   369  0897                     	;# 
   370  0898                     	;# 
   371  0899                     	;# 
   372  089A                     	;# 
   373  089B                     	;# 
   374  090C                     	;# 
   375  090E                     	;# 
   376  090F                     	;# 
   377  091F                     	;# 
   378  098F                     	;# 
   379  098F                     	;# 
   380  0990                     	;# 
   381  0991                     	;# 
   382  0992                     	;# 
   383  0993                     	;# 
   384  0994                     	;# 
   385  0995                     	;# 
   386  0996                     	;# 
   387  0997                     	;# 
   388  1E0F                     	;# 
   389  1E10                     	;# 
   390  1E11                     	;# 
   391  1E12                     	;# 
   392  1E13                     	;# 
   393  1E14                     	;# 
   394  1E15                     	;# 
   395  1E16                     	;# 
   396  1E17                     	;# 
   397  1E18                     	;# 
   398  1E19                     	;# 
   399  1E1A                     	;# 
   400  1E1B                     	;# 
   401  1E1C                     	;# 
   402  1E1D                     	;# 
   403  1E1E                     	;# 
   404  1E1F                     	;# 
   405  1E20                     	;# 
   406  1E21                     	;# 
   407  1E22                     	;# 
   408  1E23                     	;# 
   409  1E24                     	;# 
   410  1E25                     	;# 
   411  1E26                     	;# 
   412  1E27                     	;# 
   413  1E28                     	;# 
   414  1E29                     	;# 
   415  1E2A                     	;# 
   416  1E2B                     	;# 
   417  1E2C                     	;# 
   418  1E2D                     	;# 
   419  1E2E                     	;# 
   420  1E2F                     	;# 
   421  1E30                     	;# 
   422  1E31                     	;# 
   423  1E32                     	;# 
   424  1E33                     	;# 
   425  1E34                     	;# 
   426  1E35                     	;# 
   427  1E36                     	;# 
   428  1E37                     	;# 
   429  1E8F                     	;# 
   430  1E90                     	;# 
   431  1E91                     	;# 
   432  1E92                     	;# 
   433  1E93                     	;# 
   434  1E94                     	;# 
   435  1E95                     	;# 
   436  1E96                     	;# 
   437  1E97                     	;# 
   438  1E9C                     	;# 
   439  1E9D                     	;# 
   440  1E9E                     	;# 
   441  1EA1                     	;# 
   442  1EA2                     	;# 
   443  1EA3                     	;# 
   444  1EA4                     	;# 
   445  1EA9                     	;# 
   446  1EAA                     	;# 
   447  1EB1                     	;# 
   448  1EB2                     	;# 
   449  1EB8                     	;# 
   450  1EB9                     	;# 
   451  1EBA                     	;# 
   452  1EBB                     	;# 
   453  1EBC                     	;# 
   454  1EBD                     	;# 
   455  1EBE                     	;# 
   456  1EC3                     	;# 
   457  1EC5                     	;# 
   458  1EC6                     	;# 
   459  1EC7                     	;# 
   460  1EC8                     	;# 
   461  1EC9                     	;# 
   462  1ECA                     	;# 
   463  1ECB                     	;# 
   464  1ECB                     	;# 
   465  1ECB                     	;# 
   466  1ECC                     	;# 
   467  1ECC                     	;# 
   468  1ECC                     	;# 
   469  1F10                     	;# 
   470  1F11                     	;# 
   471  1F12                     	;# 
   472  1F14                     	;# 
   473  1F15                     	;# 
   474  1F1C                     	;# 
   475  1F1D                     	;# 
   476  1F1E                     	;# 
   477  1F1F                     	;# 
   478  1F20                     	;# 
   479  1F21                     	;# 
   480  1F22                     	;# 
   481  1F23                     	;# 
   482  1F24                     	;# 
   483  1F25                     	;# 
   484  1F26                     	;# 
   485  1F27                     	;# 
   486  1F38                     	;# 
   487  1F39                     	;# 
   488  1F3A                     	;# 
   489  1F3B                     	;# 
   490  1F3C                     	;# 
   491  1F3D                     	;# 
   492  1F3E                     	;# 
   493  1F3F                     	;# 
   494  1F43                     	;# 
   495  1F44                     	;# 
   496  1F45                     	;# 
   497  1F46                     	;# 
   498  1F47                     	;# 
   499  1F48                     	;# 
   500  1F49                     	;# 
   501  1F4A                     	;# 
   502  1F4E                     	;# 
   503  1F4F                     	;# 
   504  1F50                     	;# 
   505  1F51                     	;# 
   506  1F52                     	;# 
   507  1F53                     	;# 
   508  1F54                     	;# 
   509  1F55                     	;# 
   510  1FE4                     	;# 
   511  1FE5                     	;# 
   512  1FE6                     	;# 
   513  1FE7                     	;# 
   514  1FE8                     	;# 
   515  1FE8                     	;# 
   516  1FE9                     	;# 
   517  1FEA                     	;# 
   518  1FEB                     	;# 
   519  1FED                     	;# 
   520  1FEE                     	;# 
   521  1FEF                     	;# 
   522  0000                     	;# 
   523  0001                     	;# 
   524  0002                     	;# 
   525  0003                     	;# 
   526  0004                     	;# 
   527  0005                     	;# 
   528  0006                     	;# 
   529  0007                     	;# 
   530  0008                     	;# 
   531  0009                     	;# 
   532  000A                     	;# 
   533  000B                     	;# 
   534  000C                     	;# 
   535  000D                     	;# 
   536  000E                     	;# 
   537  0012                     	;# 
   538  0013                     	;# 
   539  0014                     	;# 
   540  0018                     	;# 
   541  0019                     	;# 
   542  001A                     	;# 
   543  008C                     	;# 
   544  008C                     	;# 
   545  008D                     	;# 
   546  008E                     	;# 
   547  008E                     	;# 
   548  008F                     	;# 
   549  0090                     	;# 
   550  0090                     	;# 
   551  0091                     	;# 
   552  0092                     	;# 
   553  0092                     	;# 
   554  0093                     	;# 
   555  0094                     	;# 
   556  0094                     	;# 
   557  0095                     	;# 
   558  0096                     	;# 
   559  0096                     	;# 
   560  0097                     	;# 
   561  0098                     	;# 
   562  0099                     	;# 
   563  009A                     	;# 
   564  009B                     	;# 
   565  009B                     	;# 
   566  009C                     	;# 
   567  009D                     	;# 
   568  009D                     	;# 
   569  009E                     	;# 
   570  009F                     	;# 
   571  010C                     	;# 
   572  010C                     	;# 
   573  010D                     	;# 
   574  010E                     	;# 
   575  010F                     	;# 
   576  010F                     	;# 
   577  0110                     	;# 
   578  0111                     	;# 
   579  0112                     	;# 
   580  0113                     	;# 
   581  0114                     	;# 
   582  0115                     	;# 
   583  0116                     	;# 
   584  0117                     	;# 
   585  0118                     	;# 
   586  0119                     	;# 
   587  0119                     	;# 
   588  0119                     	;# 
   589  011A                     	;# 
   590  011A                     	;# 
   591  011A                     	;# 
   592  011B                     	;# 
   593  011B                     	;# 
   594  011B                     	;# 
   595  011B                     	;# 
   596  011B                     	;# 
   597  011C                     	;# 
   598  011C                     	;# 
   599  011C                     	;# 
   600  011D                     	;# 
   601  011D                     	;# 
   602  011D                     	;# 
   603  011E                     	;# 
   604  011E                     	;# 
   605  011E                     	;# 
   606  011F                     	;# 
   607  011F                     	;# 
   608  011F                     	;# 
   609  011F                     	;# 
   610  011F                     	;# 
   611  018C                     	;# 
   612  018D                     	;# 
   613  018E                     	;# 
   614  018F                     	;# 
   615  0190                     	;# 
   616  0191                     	;# 
   617  0192                     	;# 
   618  0196                     	;# 
   619  0197                     	;# 
   620  0198                     	;# 
   621  0199                     	;# 
   622  019A                     	;# 
   623  019B                     	;# 
   624  019C                     	;# 
   625  020C                     	;# 
   626  020D                     	;# 
   627  020E                     	;# 
   628  020E                     	;# 
   629  020F                     	;# 
   630  020F                     	;# 
   631  0210                     	;# 
   632  0210                     	;# 
   633  0211                     	;# 
   634  0211                     	;# 
   635  0212                     	;# 
   636  0213                     	;# 
   637  0214                     	;# 
   638  0214                     	;# 
   639  0215                     	;# 
   640  0215                     	;# 
   641  0216                     	;# 
   642  0216                     	;# 
   643  0217                     	;# 
   644  0217                     	;# 
   645  0218                     	;# 
   646  0219                     	;# 
   647  021A                     	;# 
   648  021A                     	;# 
   649  021B                     	;# 
   650  021B                     	;# 
   651  021C                     	;# 
   652  021C                     	;# 
   653  021D                     	;# 
   654  021D                     	;# 
   655  021E                     	;# 
   656  021F                     	;# 
   657  028C                     	;# 
   658  028C                     	;# 
   659  028D                     	;# 
   660  028D                     	;# 
   661  028E                     	;# 
   662  028F                     	;# 
   663  0290                     	;# 
   664  0291                     	;# 
   665  0292                     	;# 
   666  0292                     	;# 
   667  0293                     	;# 
   668  0293                     	;# 
   669  0294                     	;# 
   670  0295                     	;# 
   671  0296                     	;# 
   672  0297                     	;# 
   673  0298                     	;# 
   674  0298                     	;# 
   675  0299                     	;# 
   676  0299                     	;# 
   677  029A                     	;# 
   678  029B                     	;# 
   679  029C                     	;# 
   680  029D                     	;# 
   681  029F                     	;# 
   682  030C                     	;# 
   683  030C                     	;# 
   684  030D                     	;# 
   685  030E                     	;# 
   686  030F                     	;# 
   687  0310                     	;# 
   688  0310                     	;# 
   689  0311                     	;# 
   690  0312                     	;# 
   691  0313                     	;# 
   692  0314                     	;# 
   693  0314                     	;# 
   694  0315                     	;# 
   695  0316                     	;# 
   696  0317                     	;# 
   697  0318                     	;# 
   698  0318                     	;# 
   699  0319                     	;# 
   700  031A                     	;# 
   701  031B                     	;# 
   702  038C                     	;# 
   703  038C                     	;# 
   704  038D                     	;# 
   705  038E                     	;# 
   706  0390                     	;# 
   707  0390                     	;# 
   708  0391                     	;# 
   709  0392                     	;# 
   710  048C                     	;# 
   711  048C                     	;# 
   712  048D                     	;# 
   713  048E                     	;# 
   714  048F                     	;# 
   715  048F                     	;# 
   716  0490                     	;# 
   717  0491                     	;# 
   718  0492                     	;# 
   719  0492                     	;# 
   720  0493                     	;# 
   721  0494                     	;# 
   722  0495                     	;# 
   723  0495                     	;# 
   724  0496                     	;# 
   725  0497                     	;# 
   726  0498                     	;# 
   727  0499                     	;# 
   728  049A                     	;# 
   729  049B                     	;# 
   730  049C                     	;# 
   731  049D                     	;# 
   732  058C                     	;# 
   733  058C                     	;# 
   734  058D                     	;# 
   735  058E                     	;# 
   736  058F                     	;# 
   737  058F                     	;# 
   738  0590                     	;# 
   739  0591                     	;# 
   740  0592                     	;# 
   741  0593                     	;# 
   742  059C                     	;# 
   743  059C                     	;# 
   744  059D                     	;# 
   745  059D                     	;# 
   746  059E                     	;# 
   747  059F                     	;# 
   748  060C                     	;# 
   749  060C                     	;# 
   750  060D                     	;# 
   751  060D                     	;# 
   752  060E                     	;# 
   753  060F                     	;# 
   754  0610                     	;# 
   755  0611                     	;# 
   756  0612                     	;# 
   757  0613                     	;# 
   758  0614                     	;# 
   759  0616                     	;# 
   760  0616                     	;# 
   761  0617                     	;# 
   762  0617                     	;# 
   763  0618                     	;# 
   764  0619                     	;# 
   765  061A                     	;# 
   766  061B                     	;# 
   767  061C                     	;# 
   768  061D                     	;# 
   769  061E                     	;# 
   770  070C                     	;# 
   771  070D                     	;# 
   772  070E                     	;# 
   773  070F                     	;# 
   774  0710                     	;# 
   775  0711                     	;# 
   776  0712                     	;# 
   777  0713                     	;# 
   778  0714                     	;# 
   779  0716                     	;# 
   780  0717                     	;# 
   781  0718                     	;# 
   782  0719                     	;# 
   783  071A                     	;# 
   784  071B                     	;# 
   785  071C                     	;# 
   786  071D                     	;# 
   787  071E                     	;# 
   788  0796                     	;# 
   789  0797                     	;# 
   790  0798                     	;# 
   791  0799                     	;# 
   792  079A                     	;# 
   793  079B                     	;# 
   794  079C                     	;# 
   795  079D                     	;# 
   796  080C                     	;# 
   797  080D                     	;# 
   798  080E                     	;# 
   799  080F                     	;# 
   800  0810                     	;# 
   801  0811                     	;# 
   802  0812                     	;# 
   803  0813                     	;# 
   804  0814                     	;# 
   805  081A                     	;# 
   806  081A                     	;# 
   807  081B                     	;# 
   808  081C                     	;# 
   809  081C                     	;# 
   810  081D                     	;# 
   811  081E                     	;# 
   812  081F                     	;# 
   813  088C                     	;# 
   814  088D                     	;# 
   815  088E                     	;# 
   816  088F                     	;# 
   817  0890                     	;# 
   818  0891                     	;# 
   819  0892                     	;# 
   820  0893                     	;# 
   821  0895                     	;# 
   822  0896                     	;# 
   823  0897                     	;# 
   824  0898                     	;# 
   825  0899                     	;# 
   826  089A                     	;# 
   827  089B                     	;# 
   828  090C                     	;# 
   829  090E                     	;# 
   830  090F                     	;# 
   831  091F                     	;# 
   832  098F                     	;# 
   833  098F                     	;# 
   834  0990                     	;# 
   835  0991                     	;# 
   836  0992                     	;# 
   837  0993                     	;# 
   838  0994                     	;# 
   839  0995                     	;# 
   840  0996                     	;# 
   841  0997                     	;# 
   842  1E0F                     	;# 
   843  1E10                     	;# 
   844  1E11                     	;# 
   845  1E12                     	;# 
   846  1E13                     	;# 
   847  1E14                     	;# 
   848  1E15                     	;# 
   849  1E16                     	;# 
   850  1E17                     	;# 
   851  1E18                     	;# 
   852  1E19                     	;# 
   853  1E1A                     	;# 
   854  1E1B                     	;# 
   855  1E1C                     	;# 
   856  1E1D                     	;# 
   857  1E1E                     	;# 
   858  1E1F                     	;# 
   859  1E20                     	;# 
   860  1E21                     	;# 
   861  1E22                     	;# 
   862  1E23                     	;# 
   863  1E24                     	;# 
   864  1E25                     	;# 
   865  1E26                     	;# 
   866  1E27                     	;# 
   867  1E28                     	;# 
   868  1E29                     	;# 
   869  1E2A                     	;# 
   870  1E2B                     	;# 
   871  1E2C                     	;# 
   872  1E2D                     	;# 
   873  1E2E                     	;# 
   874  1E2F                     	;# 
   875  1E30                     	;# 
   876  1E31                     	;# 
   877  1E32                     	;# 
   878  1E33                     	;# 
   879  1E34                     	;# 
   880  1E35                     	;# 
   881  1E36                     	;# 
   882  1E37                     	;# 
   883  1E8F                     	;# 
   884  1E90                     	;# 
   885  1E91                     	;# 
   886  1E92                     	;# 
   887  1E93                     	;# 
   888  1E94                     	;# 
   889  1E95                     	;# 
   890  1E96                     	;# 
   891  1E97                     	;# 
   892  1E9C                     	;# 
   893  1E9D                     	;# 
   894  1E9E                     	;# 
   895  1EA1                     	;# 
   896  1EA2                     	;# 
   897  1EA3                     	;# 
   898  1EA4                     	;# 
   899  1EA9                     	;# 
   900  1EAA                     	;# 
   901  1EB1                     	;# 
   902  1EB2                     	;# 
   903  1EB8                     	;# 
   904  1EB9                     	;# 
   905  1EBA                     	;# 
   906  1EBB                     	;# 
   907  1EBC                     	;# 
   908  1EBD                     	;# 
   909  1EBE                     	;# 
   910  1EC3                     	;# 
   911  1EC5                     	;# 
   912  1EC6                     	;# 
   913  1EC7                     	;# 
   914  1EC8                     	;# 
   915  1EC9                     	;# 
   916  1ECA                     	;# 
   917  1ECB                     	;# 
   918  1ECB                     	;# 
   919  1ECB                     	;# 
   920  1ECC                     	;# 
   921  1ECC                     	;# 
   922  1ECC                     	;# 
   923  1F10                     	;# 
   924  1F11                     	;# 
   925  1F12                     	;# 
   926  1F14                     	;# 
   927  1F15                     	;# 
   928  1F1C                     	;# 
   929  1F1D                     	;# 
   930  1F1E                     	;# 
   931  1F1F                     	;# 
   932  1F20                     	;# 
   933  1F21                     	;# 
   934  1F22                     	;# 
   935  1F23                     	;# 
   936  1F24                     	;# 
   937  1F25                     	;# 
   938  1F26                     	;# 
   939  1F27                     	;# 
   940  1F38                     	;# 
   941  1F39                     	;# 
   942  1F3A                     	;# 
   943  1F3B                     	;# 
   944  1F3C                     	;# 
   945  1F3D                     	;# 
   946  1F3E                     	;# 
   947  1F3F                     	;# 
   948  1F43                     	;# 
   949  1F44                     	;# 
   950  1F45                     	;# 
   951  1F46                     	;# 
   952  1F47                     	;# 
   953  1F48                     	;# 
   954  1F49                     	;# 
   955  1F4A                     	;# 
   956  1F4E                     	;# 
   957  1F4F                     	;# 
   958  1F50                     	;# 
   959  1F51                     	;# 
   960  1F52                     	;# 
   961  1F53                     	;# 
   962  1F54                     	;# 
   963  1F55                     	;# 
   964  1FE4                     	;# 
   965  1FE5                     	;# 
   966  1FE6                     	;# 
   967  1FE7                     	;# 
   968  1FE8                     	;# 
   969  1FE8                     	;# 
   970  1FE9                     	;# 
   971  1FEA                     	;# 
   972  1FEB                     	;# 
   973  1FED                     	;# 
   974  1FEE                     	;# 
   975  1FEF                     	;# 
   976  0000                     	;# 
   977  0001                     	;# 
   978  0002                     	;# 
   979  0003                     	;# 
   980  0004                     	;# 
   981  0005                     	;# 
   982  0006                     	;# 
   983  0007                     	;# 
   984  0008                     	;# 
   985  0009                     	;# 
   986  000A                     	;# 
   987  000B                     	;# 
   988  000C                     	;# 
   989  000D                     	;# 
   990  000E                     	;# 
   991  0012                     	;# 
   992  0013                     	;# 
   993  0014                     	;# 
   994  0018                     	;# 
   995  0019                     	;# 
   996  001A                     	;# 
   997  008C                     	;# 
   998  008C                     	;# 
   999  008D                     	;# 
  1000  008E                     	;# 
  1001  008E                     	;# 
  1002  008F                     	;# 
  1003  0090                     	;# 
  1004  0090                     	;# 
  1005  0091                     	;# 
  1006  0092                     	;# 
  1007  0092                     	;# 
  1008  0093                     	;# 
  1009  0094                     	;# 
  1010  0094                     	;# 
  1011  0095                     	;# 
  1012  0096                     	;# 
  1013  0096                     	;# 
  1014  0097                     	;# 
  1015  0098                     	;# 
  1016  0099                     	;# 
  1017  009A                     	;# 
  1018  009B                     	;# 
  1019  009B                     	;# 
  1020  009C                     	;# 
  1021  009D                     	;# 
  1022  009D                     	;# 
  1023  009E                     	;# 
  1024  009F                     	;# 
  1025  010C                     	;# 
  1026  010C                     	;# 
  1027  010D                     	;# 
  1028  010E                     	;# 
  1029  010F                     	;# 
  1030  010F                     	;# 
  1031  0110                     	;# 
  1032  0111                     	;# 
  1033  0112                     	;# 
  1034  0113                     	;# 
  1035  0114                     	;# 
  1036  0115                     	;# 
  1037  0116                     	;# 
  1038  0117                     	;# 
  1039  0118                     	;# 
  1040  0119                     	;# 
  1041  0119                     	;# 
  1042  0119                     	;# 
  1043  011A                     	;# 
  1044  011A                     	;# 
  1045  011A                     	;# 
  1046  011B                     	;# 
  1047  011B                     	;# 
  1048  011B                     	;# 
  1049  011B                     	;# 
  1050  011B                     	;# 
  1051  011C                     	;# 
  1052  011C                     	;# 
  1053  011C                     	;# 
  1054  011D                     	;# 
  1055  011D                     	;# 
  1056  011D                     	;# 
  1057  011E                     	;# 
  1058  011E                     	;# 
  1059  011E                     	;# 
  1060  011F                     	;# 
  1061  011F                     	;# 
  1062  011F                     	;# 
  1063  011F                     	;# 
  1064  011F                     	;# 
  1065  018C                     	;# 
  1066  018D                     	;# 
  1067  018E                     	;# 
  1068  018F                     	;# 
  1069  0190                     	;# 
  1070  0191                     	;# 
  1071  0192                     	;# 
  1072  0196                     	;# 
  1073  0197                     	;# 
  1074  0198                     	;# 
  1075  0199                     	;# 
  1076  019A                     	;# 
  1077  019B                     	;# 
  1078  019C                     	;# 
  1079  020C                     	;# 
  1080  020D                     	;# 
  1081  020E                     	;# 
  1082  020E                     	;# 
  1083  020F                     	;# 
  1084  020F                     	;# 
  1085  0210                     	;# 
  1086  0210                     	;# 
  1087  0211                     	;# 
  1088  0211                     	;# 
  1089  0212                     	;# 
  1090  0213                     	;# 
  1091  0214                     	;# 
  1092  0214                     	;# 
  1093  0215                     	;# 
  1094  0215                     	;# 
  1095  0216                     	;# 
  1096  0216                     	;# 
  1097  0217                     	;# 
  1098  0217                     	;# 
  1099  0218                     	;# 
  1100  0219                     	;# 
  1101  021A                     	;# 
  1102  021A                     	;# 
  1103  021B                     	;# 
  1104  021B                     	;# 
  1105  021C                     	;# 
  1106  021C                     	;# 
  1107  021D                     	;# 
  1108  021D                     	;# 
  1109  021E                     	;# 
  1110  021F                     	;# 
  1111  028C                     	;# 
  1112  028C                     	;# 
  1113  028D                     	;# 
  1114  028D                     	;# 
  1115  028E                     	;# 
  1116  028F                     	;# 
  1117  0290                     	;# 
  1118  0291                     	;# 
  1119  0292                     	;# 
  1120  0292                     	;# 
  1121  0293                     	;# 
  1122  0293                     	;# 
  1123  0294                     	;# 
  1124  0295                     	;# 
  1125  0296                     	;# 
  1126  0297                     	;# 
  1127  0298                     	;# 
  1128  0298                     	;# 
  1129  0299                     	;# 
  1130  0299                     	;# 
  1131  029A                     	;# 
  1132  029B                     	;# 
  1133  029C                     	;# 
  1134  029D                     	;# 
  1135  029F                     	;# 
  1136  030C                     	;# 
  1137  030C                     	;# 
  1138  030D                     	;# 
  1139  030E                     	;# 
  1140  030F                     	;# 
  1141  0310                     	;# 
  1142  0310                     	;# 
  1143  0311                     	;# 
  1144  0312                     	;# 
  1145  0313                     	;# 
  1146  0314                     	;# 
  1147  0314                     	;# 
  1148  0315                     	;# 
  1149  0316                     	;# 
  1150  0317                     	;# 
  1151  0318                     	;# 
  1152  0318                     	;# 
  1153  0319                     	;# 
  1154  031A                     	;# 
  1155  031B                     	;# 
  1156  038C                     	;# 
  1157  038C                     	;# 
  1158  038D                     	;# 
  1159  038E                     	;# 
  1160  0390                     	;# 
  1161  0390                     	;# 
  1162  0391                     	;# 
  1163  0392                     	;# 
  1164  048C                     	;# 
  1165  048C                     	;# 
  1166  048D                     	;# 
  1167  048E                     	;# 
  1168  048F                     	;# 
  1169  048F                     	;# 
  1170  0490                     	;# 
  1171  0491                     	;# 
  1172  0492                     	;# 
  1173  0492                     	;# 
  1174  0493                     	;# 
  1175  0494                     	;# 
  1176  0495                     	;# 
  1177  0495                     	;# 
  1178  0496                     	;# 
  1179  0497                     	;# 
  1180  0498                     	;# 
  1181  0499                     	;# 
  1182  049A                     	;# 
  1183  049B                     	;# 
  1184  049C                     	;# 
  1185  049D                     	;# 
  1186  058C                     	;# 
  1187  058C                     	;# 
  1188  058D                     	;# 
  1189  058E                     	;# 
  1190  058F                     	;# 
  1191  058F                     	;# 
  1192  0590                     	;# 
  1193  0591                     	;# 
  1194  0592                     	;# 
  1195  0593                     	;# 
  1196  059C                     	;# 
  1197  059C                     	;# 
  1198  059D                     	;# 
  1199  059D                     	;# 
  1200  059E                     	;# 
  1201  059F                     	;# 
  1202  060C                     	;# 
  1203  060C                     	;# 
  1204  060D                     	;# 
  1205  060D                     	;# 
  1206  060E                     	;# 
  1207  060F                     	;# 
  1208  0610                     	;# 
  1209  0611                     	;# 
  1210  0612                     	;# 
  1211  0613                     	;# 
  1212  0614                     	;# 
  1213  0616                     	;# 
  1214  0616                     	;# 
  1215  0617                     	;# 
  1216  0617                     	;# 
  1217  0618                     	;# 
  1218  0619                     	;# 
  1219  061A                     	;# 
  1220  061B                     	;# 
  1221  061C                     	;# 
  1222  061D                     	;# 
  1223  061E                     	;# 
  1224  070C                     	;# 
  1225  070D                     	;# 
  1226  070E                     	;# 
  1227  070F                     	;# 
  1228  0710                     	;# 
  1229  0711                     	;# 
  1230  0712                     	;# 
  1231  0713                     	;# 
  1232  0714                     	;# 
  1233  0716                     	;# 
  1234  0717                     	;# 
  1235  0718                     	;# 
  1236  0719                     	;# 
  1237  071A                     	;# 
  1238  071B                     	;# 
  1239  071C                     	;# 
  1240  071D                     	;# 
  1241  071E                     	;# 
  1242  0796                     	;# 
  1243  0797                     	;# 
  1244  0798                     	;# 
  1245  0799                     	;# 
  1246  079A                     	;# 
  1247  079B                     	;# 
  1248  079C                     	;# 
  1249  079D                     	;# 
  1250  080C                     	;# 
  1251  080D                     	;# 
  1252  080E                     	;# 
  1253  080F                     	;# 
  1254  0810                     	;# 
  1255  0811                     	;# 
  1256  0812                     	;# 
  1257  0813                     	;# 
  1258  0814                     	;# 
  1259  081A                     	;# 
  1260  081A                     	;# 
  1261  081B                     	;# 
  1262  081C                     	;# 
  1263  081C                     	;# 
  1264  081D                     	;# 
  1265  081E                     	;# 
  1266  081F                     	;# 
  1267  088C                     	;# 
  1268  088D                     	;# 
  1269  088E                     	;# 
  1270  088F                     	;# 
  1271  0890                     	;# 
  1272  0891                     	;# 
  1273  0892                     	;# 
  1274  0893                     	;# 
  1275  0895                     	;# 
  1276  0896                     	;# 
  1277  0897                     	;# 
  1278  0898                     	;# 
  1279  0899                     	;# 
  1280  089A                     	;# 
  1281  089B                     	;# 
  1282  090C                     	;# 
  1283  090E                     	;# 
  1284  090F                     	;# 
  1285  091F                     	;# 
  1286  098F                     	;# 
  1287  098F                     	;# 
  1288  0990                     	;# 
  1289  0991                     	;# 
  1290  0992                     	;# 
  1291  0993                     	;# 
  1292  0994                     	;# 
  1293  0995                     	;# 
  1294  0996                     	;# 
  1295  0997                     	;# 
  1296  1E0F                     	;# 
  1297  1E10                     	;# 
  1298  1E11                     	;# 
  1299  1E12                     	;# 
  1300  1E13                     	;# 
  1301  1E14                     	;# 
  1302  1E15                     	;# 
  1303  1E16                     	;# 
  1304  1E17                     	;# 
  1305  1E18                     	;# 
  1306  1E19                     	;# 
  1307  1E1A                     	;# 
  1308  1E1B                     	;# 
  1309  1E1C                     	;# 
  1310  1E1D                     	;# 
  1311  1E1E                     	;# 
  1312  1E1F                     	;# 
  1313  1E20                     	;# 
  1314  1E21                     	;# 
  1315  1E22                     	;# 
  1316  1E23                     	;# 
  1317  1E24                     	;# 
  1318  1E25                     	;# 
  1319  1E26                     	;# 
  1320  1E27                     	;# 
  1321  1E28                     	;# 
  1322  1E29                     	;# 
  1323  1E2A                     	;# 
  1324  1E2B                     	;# 
  1325  1E2C                     	;# 
  1326  1E2D                     	;# 
  1327  1E2E                     	;# 
  1328  1E2F                     	;# 
  1329  1E30                     	;# 
  1330  1E31                     	;# 
  1331  1E32                     	;# 
  1332  1E33                     	;# 
  1333  1E34                     	;# 
  1334  1E35                     	;# 
  1335  1E36                     	;# 
  1336  1E37                     	;# 
  1337  1E8F                     	;# 
  1338  1E90                     	;# 
  1339  1E91                     	;# 
  1340  1E92                     	;# 
  1341  1E93                     	;# 
  1342  1E94                     	;# 
  1343  1E95                     	;# 
  1344  1E96                     	;# 
  1345  1E97                     	;# 
  1346  1E9C                     	;# 
  1347  1E9D                     	;# 
  1348  1E9E                     	;# 
  1349  1EA1                     	;# 
  1350  1EA2                     	;# 
  1351  1EA3                     	;# 
  1352  1EA4                     	;# 
  1353  1EA9                     	;# 
  1354  1EAA                     	;# 
  1355  1EB1                     	;# 
  1356  1EB2                     	;# 
  1357  1EB8                     	;# 
  1358  1EB9                     	;# 
  1359  1EBA                     	;# 
  1360  1EBB                     	;# 
  1361  1EBC                     	;# 
  1362  1EBD                     	;# 
  1363  1EBE                     	;# 
  1364  1EC3                     	;# 
  1365  1EC5                     	;# 
  1366  1EC6                     	;# 
  1367  1EC7                     	;# 
  1368  1EC8                     	;# 
  1369  1EC9                     	;# 
  1370  1ECA                     	;# 
  1371  1ECB                     	;# 
  1372  1ECB                     	;# 
  1373  1ECB                     	;# 
  1374  1ECC                     	;# 
  1375  1ECC                     	;# 
  1376  1ECC                     	;# 
  1377  1F10                     	;# 
  1378  1F11                     	;# 
  1379  1F12                     	;# 
  1380  1F14                     	;# 
  1381  1F15                     	;# 
  1382  1F1C                     	;# 
  1383  1F1D                     	;# 
  1384  1F1E                     	;# 
  1385  1F1F                     	;# 
  1386  1F20                     	;# 
  1387  1F21                     	;# 
  1388  1F22                     	;# 
  1389  1F23                     	;# 
  1390  1F24                     	;# 
  1391  1F25                     	;# 
  1392  1F26                     	;# 
  1393  1F27                     	;# 
  1394  1F38                     	;# 
  1395  1F39                     	;# 
  1396  1F3A                     	;# 
  1397  1F3B                     	;# 
  1398  1F3C                     	;# 
  1399  1F3D                     	;# 
  1400  1F3E                     	;# 
  1401  1F3F                     	;# 
  1402  1F43                     	;# 
  1403  1F44                     	;# 
  1404  1F45                     	;# 
  1405  1F46                     	;# 
  1406  1F47                     	;# 
  1407  1F48                     	;# 
  1408  1F49                     	;# 
  1409  1F4A                     	;# 
  1410  1F4E                     	;# 
  1411  1F4F                     	;# 
  1412  1F50                     	;# 
  1413  1F51                     	;# 
  1414  1F52                     	;# 
  1415  1F53                     	;# 
  1416  1F54                     	;# 
  1417  1F55                     	;# 
  1418  1FE4                     	;# 
  1419  1FE5                     	;# 
  1420  1FE6                     	;# 
  1421  1FE7                     	;# 
  1422  1FE8                     	;# 
  1423  1FE8                     	;# 
  1424  1FE9                     	;# 
  1425  1FEA                     	;# 
  1426  1FEB                     	;# 
  1427  1FED                     	;# 
  1428  1FEE                     	;# 
  1429  1FEF                     	;# 
  1430  0000                     	;# 
  1431  0001                     	;# 
  1432  0002                     	;# 
  1433  0003                     	;# 
  1434  0004                     	;# 
  1435  0005                     	;# 
  1436  0006                     	;# 
  1437  0007                     	;# 
  1438  0008                     	;# 
  1439  0009                     	;# 
  1440  000A                     	;# 
  1441  000B                     	;# 
  1442  000C                     	;# 
  1443  000D                     	;# 
  1444  000E                     	;# 
  1445  0012                     	;# 
  1446  0013                     	;# 
  1447  0014                     	;# 
  1448  0018                     	;# 
  1449  0019                     	;# 
  1450  001A                     	;# 
  1451  008C                     	;# 
  1452  008C                     	;# 
  1453  008D                     	;# 
  1454  008E                     	;# 
  1455  008E                     	;# 
  1456  008F                     	;# 
  1457  0090                     	;# 
  1458  0090                     	;# 
  1459  0091                     	;# 
  1460  0092                     	;# 
  1461  0092                     	;# 
  1462  0093                     	;# 
  1463  0094                     	;# 
  1464  0094                     	;# 
  1465  0095                     	;# 
  1466  0096                     	;# 
  1467  0096                     	;# 
  1468  0097                     	;# 
  1469  0098                     	;# 
  1470  0099                     	;# 
  1471  009A                     	;# 
  1472  009B                     	;# 
  1473  009B                     	;# 
  1474  009C                     	;# 
  1475  009D                     	;# 
  1476  009D                     	;# 
  1477  009E                     	;# 
  1478  009F                     	;# 
  1479  010C                     	;# 
  1480  010C                     	;# 
  1481  010D                     	;# 
  1482  010E                     	;# 
  1483  010F                     	;# 
  1484  010F                     	;# 
  1485  0110                     	;# 
  1486  0111                     	;# 
  1487  0112                     	;# 
  1488  0113                     	;# 
  1489  0114                     	;# 
  1490  0115                     	;# 
  1491  0116                     	;# 
  1492  0117                     	;# 
  1493  0118                     	;# 
  1494  0119                     	;# 
  1495  0119                     	;# 
  1496  0119                     	;# 
  1497  011A                     	;# 
  1498  011A                     	;# 
  1499  011A                     	;# 
  1500  011B                     	;# 
  1501  011B                     	;# 
  1502  011B                     	;# 
  1503  011B                     	;# 
  1504  011B                     	;# 
  1505  011C                     	;# 
  1506  011C                     	;# 
  1507  011C                     	;# 
  1508  011D                     	;# 
  1509  011D                     	;# 
  1510  011D                     	;# 
  1511  011E                     	;# 
  1512  011E                     	;# 
  1513  011E                     	;# 
  1514  011F                     	;# 
  1515  011F                     	;# 
  1516  011F                     	;# 
  1517  011F                     	;# 
  1518  011F                     	;# 
  1519  018C                     	;# 
  1520  018D                     	;# 
  1521  018E                     	;# 
  1522  018F                     	;# 
  1523  0190                     	;# 
  1524  0191                     	;# 
  1525  0192                     	;# 
  1526  0196                     	;# 
  1527  0197                     	;# 
  1528  0198                     	;# 
  1529  0199                     	;# 
  1530  019A                     	;# 
  1531  019B                     	;# 
  1532  019C                     	;# 
  1533  020C                     	;# 
  1534  020D                     	;# 
  1535  020E                     	;# 
  1536  020E                     	;# 
  1537  020F                     	;# 
  1538  020F                     	;# 
  1539  0210                     	;# 
  1540  0210                     	;# 
  1541  0211                     	;# 
  1542  0211                     	;# 
  1543  0212                     	;# 
  1544  0213                     	;# 
  1545  0214                     	;# 
  1546  0214                     	;# 
  1547  0215                     	;# 
  1548  0215                     	;# 
  1549  0216                     	;# 
  1550  0216                     	;# 
  1551  0217                     	;# 
  1552  0217                     	;# 
  1553  0218                     	;# 
  1554  0219                     	;# 
  1555  021A                     	;# 
  1556  021A                     	;# 
  1557  021B                     	;# 
  1558  021B                     	;# 
  1559  021C                     	;# 
  1560  021C                     	;# 
  1561  021D                     	;# 
  1562  021D                     	;# 
  1563  021E                     	;# 
  1564  021F                     	;# 
  1565  028C                     	;# 
  1566  028C                     	;# 
  1567  028D                     	;# 
  1568  028D                     	;# 
  1569  028E                     	;# 
  1570  028F                     	;# 
  1571  0290                     	;# 
  1572  0291                     	;# 
  1573  0292                     	;# 
  1574  0292                     	;# 
  1575  0293                     	;# 
  1576  0293                     	;# 
  1577  0294                     	;# 
  1578  0295                     	;# 
  1579  0296                     	;# 
  1580  0297                     	;# 
  1581  0298                     	;# 
  1582  0298                     	;# 
  1583  0299                     	;# 
  1584  0299                     	;# 
  1585  029A                     	;# 
  1586  029B                     	;# 
  1587  029C                     	;# 
  1588  029D                     	;# 
  1589  029F                     	;# 
  1590  030C                     	;# 
  1591  030C                     	;# 
  1592  030D                     	;# 
  1593  030E                     	;# 
  1594  030F                     	;# 
  1595  0310                     	;# 
  1596  0310                     	;# 
  1597  0311                     	;# 
  1598  0312                     	;# 
  1599  0313                     	;# 
  1600  0314                     	;# 
  1601  0314                     	;# 
  1602  0315                     	;# 
  1603  0316                     	;# 
  1604  0317                     	;# 
  1605  0318                     	;# 
  1606  0318                     	;# 
  1607  0319                     	;# 
  1608  031A                     	;# 
  1609  031B                     	;# 
  1610  038C                     	;# 
  1611  038C                     	;# 
  1612  038D                     	;# 
  1613  038E                     	;# 
  1614  0390                     	;# 
  1615  0390                     	;# 
  1616  0391                     	;# 
  1617  0392                     	;# 
  1618  048C                     	;# 
  1619  048C                     	;# 
  1620  048D                     	;# 
  1621  048E                     	;# 
  1622  048F                     	;# 
  1623  048F                     	;# 
  1624  0490                     	;# 
  1625  0491                     	;# 
  1626  0492                     	;# 
  1627  0492                     	;# 
  1628  0493                     	;# 
  1629  0494                     	;# 
  1630  0495                     	;# 
  1631  0495                     	;# 
  1632  0496                     	;# 
  1633  0497                     	;# 
  1634  0498                     	;# 
  1635  0499                     	;# 
  1636  049A                     	;# 
  1637  049B                     	;# 
  1638  049C                     	;# 
  1639  049D                     	;# 
  1640  058C                     	;# 
  1641  058C                     	;# 
  1642  058D                     	;# 
  1643  058E                     	;# 
  1644  058F                     	;# 
  1645  058F                     	;# 
  1646  0590                     	;# 
  1647  0591                     	;# 
  1648  0592                     	;# 
  1649  0593                     	;# 
  1650  059C                     	;# 
  1651  059C                     	;# 
  1652  059D                     	;# 
  1653  059D                     	;# 
  1654  059E                     	;# 
  1655  059F                     	;# 
  1656  060C                     	;# 
  1657  060C                     	;# 
  1658  060D                     	;# 
  1659  060D                     	;# 
  1660  060E                     	;# 
  1661  060F                     	;# 
  1662  0610                     	;# 
  1663  0611                     	;# 
  1664  0612                     	;# 
  1665  0613                     	;# 
  1666  0614                     	;# 
  1667  0616                     	;# 
  1668  0616                     	;# 
  1669  0617                     	;# 
  1670  0617                     	;# 
  1671  0618                     	;# 
  1672  0619                     	;# 
  1673  061A                     	;# 
  1674  061B                     	;# 
  1675  061C                     	;# 
  1676  061D                     	;# 
  1677  061E                     	;# 
  1678  070C                     	;# 
  1679  070D                     	;# 
  1680  070E                     	;# 
  1681  070F                     	;# 
  1682  0710                     	;# 
  1683  0711                     	;# 
  1684  0712                     	;# 
  1685  0713                     	;# 
  1686  0714                     	;# 
  1687  0716                     	;# 
  1688  0717                     	;# 
  1689  0718                     	;# 
  1690  0719                     	;# 
  1691  071A                     	;# 
  1692  071B                     	;# 
  1693  071C                     	;# 
  1694  071D                     	;# 
  1695  071E                     	;# 
  1696  0796                     	;# 
  1697  0797                     	;# 
  1698  0798                     	;# 
  1699  0799                     	;# 
  1700  079A                     	;# 
  1701  079B                     	;# 
  1702  079C                     	;# 
  1703  079D                     	;# 
  1704  080C                     	;# 
  1705  080D                     	;# 
  1706  080E                     	;# 
  1707  080F                     	;# 
  1708  0810                     	;# 
  1709  0811                     	;# 
  1710  0812                     	;# 
  1711  0813                     	;# 
  1712  0814                     	;# 
  1713  081A                     	;# 
  1714  081A                     	;# 
  1715  081B                     	;# 
  1716  081C                     	;# 
  1717  081C                     	;# 
  1718  081D                     	;# 
  1719  081E                     	;# 
  1720  081F                     	;# 
  1721  088C                     	;# 
  1722  088D                     	;# 
  1723  088E                     	;# 
  1724  088F                     	;# 
  1725  0890                     	;# 
  1726  0891                     	;# 
  1727  0892                     	;# 
  1728  0893                     	;# 
  1729  0895                     	;# 
  1730  0896                     	;# 
  1731  0897                     	;# 
  1732  0898                     	;# 
  1733  0899                     	;# 
  1734  089A                     	;# 
  1735  089B                     	;# 
  1736  090C                     	;# 
  1737  090E                     	;# 
  1738  090F                     	;# 
  1739  091F                     	;# 
  1740  098F                     	;# 
  1741  098F                     	;# 
  1742  0990                     	;# 
  1743  0991                     	;# 
  1744  0992                     	;# 
  1745  0993                     	;# 
  1746  0994                     	;# 
  1747  0995                     	;# 
  1748  0996                     	;# 
  1749  0997                     	;# 
  1750  1E0F                     	;# 
  1751  1E10                     	;# 
  1752  1E11                     	;# 
  1753  1E12                     	;# 
  1754  1E13                     	;# 
  1755  1E14                     	;# 
  1756  1E15                     	;# 
  1757  1E16                     	;# 
  1758  1E17                     	;# 
  1759  1E18                     	;# 
  1760  1E19                     	;# 
  1761  1E1A                     	;# 
  1762  1E1B                     	;# 
  1763  1E1C                     	;# 
  1764  1E1D                     	;# 
  1765  1E1E                     	;# 
  1766  1E1F                     	;# 
  1767  1E20                     	;# 
  1768  1E21                     	;# 
  1769  1E22                     	;# 
  1770  1E23                     	;# 
  1771  1E24                     	;# 
  1772  1E25                     	;# 
  1773  1E26                     	;# 
  1774  1E27                     	;# 
  1775  1E28                     	;# 
  1776  1E29                     	;# 
  1777  1E2A                     	;# 
  1778  1E2B                     	;# 
  1779  1E2C                     	;# 
  1780  1E2D                     	;# 
  1781  1E2E                     	;# 
  1782  1E2F                     	;# 
  1783  1E30                     	;# 
  1784  1E31                     	;# 
  1785  1E32                     	;# 
  1786  1E33                     	;# 
  1787  1E34                     	;# 
  1788  1E35                     	;# 
  1789  1E36                     	;# 
  1790  1E37                     	;# 
  1791  1E8F                     	;# 
  1792  1E90                     	;# 
  1793  1E91                     	;# 
  1794  1E92                     	;# 
  1795  1E93                     	;# 
  1796  1E94                     	;# 
  1797  1E95                     	;# 
  1798  1E96                     	;# 
  1799  1E97                     	;# 
  1800  1E9C                     	;# 
  1801  1E9D                     	;# 
  1802  1E9E                     	;# 
  1803  1EA1                     	;# 
  1804  1EA2                     	;# 
  1805  1EA3                     	;# 
  1806  1EA4                     	;# 
  1807  1EA9                     	;# 
  1808  1EAA                     	;# 
  1809  1EB1                     	;# 
  1810  1EB2                     	;# 
  1811  1EB8                     	;# 
  1812  1EB9                     	;# 
  1813  1EBA                     	;# 
  1814  1EBB                     	;# 
  1815  1EBC                     	;# 
  1816  1EBD                     	;# 
  1817  1EBE                     	;# 
  1818  1EC3                     	;# 
  1819  1EC5                     	;# 
  1820  1EC6                     	;# 
  1821  1EC7                     	;# 
  1822  1EC8                     	;# 
  1823  1EC9                     	;# 
  1824  1ECA                     	;# 
  1825  1ECB                     	;# 
  1826  1ECB                     	;# 
  1827  1ECB                     	;# 
  1828  1ECC                     	;# 
  1829  1ECC                     	;# 
  1830  1ECC                     	;# 
  1831  1F10                     	;# 
  1832  1F11                     	;# 
  1833  1F12                     	;# 
  1834  1F14                     	;# 
  1835  1F15                     	;# 
  1836  1F1C                     	;# 
  1837  1F1D                     	;# 
  1838  1F1E                     	;# 
  1839  1F1F                     	;# 
  1840  1F20                     	;# 
  1841  1F21                     	;# 
  1842  1F22                     	;# 
  1843  1F23                     	;# 
  1844  1F24                     	;# 
  1845  1F25                     	;# 
  1846  1F26                     	;# 
  1847  1F27                     	;# 
  1848  1F38                     	;# 
  1849  1F39                     	;# 
  1850  1F3A                     	;# 
  1851  1F3B                     	;# 
  1852  1F3C                     	;# 
  1853  1F3D                     	;# 
  1854  1F3E                     	;# 
  1855  1F3F                     	;# 
  1856  1F43                     	;# 
  1857  1F44                     	;# 
  1858  1F45                     	;# 
  1859  1F46                     	;# 
  1860  1F47                     	;# 
  1861  1F48                     	;# 
  1862  1F49                     	;# 
  1863  1F4A                     	;# 
  1864  1F4E                     	;# 
  1865  1F4F                     	;# 
  1866  1F50                     	;# 
  1867  1F51                     	;# 
  1868  1F52                     	;# 
  1869  1F53                     	;# 
  1870  1F54                     	;# 
  1871  1F55                     	;# 
  1872  1FE4                     	;# 
  1873  1FE5                     	;# 
  1874  1FE6                     	;# 
  1875  1FE7                     	;# 
  1876  1FE8                     	;# 
  1877  1FE8                     	;# 
  1878  1FE9                     	;# 
  1879  1FEA                     	;# 
  1880  1FEB                     	;# 
  1881  1FED                     	;# 
  1882  1FEE                     	;# 
  1883  1FEF                     	;# 
  1884  0000                     	;# 
  1885  0001                     	;# 
  1886  0002                     	;# 
  1887  0003                     	;# 
  1888  0004                     	;# 
  1889  0005                     	;# 
  1890  0006                     	;# 
  1891  0007                     	;# 
  1892  0008                     	;# 
  1893  0009                     	;# 
  1894  000A                     	;# 
  1895  000B                     	;# 
  1896  000C                     	;# 
  1897  000D                     	;# 
  1898  000E                     	;# 
  1899  0012                     	;# 
  1900  0013                     	;# 
  1901  0014                     	;# 
  1902  0018                     	;# 
  1903  0019                     	;# 
  1904  001A                     	;# 
  1905  008C                     	;# 
  1906  008C                     	;# 
  1907  008D                     	;# 
  1908  008E                     	;# 
  1909  008E                     	;# 
  1910  008F                     	;# 
  1911  0090                     	;# 
  1912  0090                     	;# 
  1913  0091                     	;# 
  1914  0092                     	;# 
  1915  0092                     	;# 
  1916  0093                     	;# 
  1917  0094                     	;# 
  1918  0094                     	;# 
  1919  0095                     	;# 
  1920  0096                     	;# 
  1921  0096                     	;# 
  1922  0097                     	;# 
  1923  0098                     	;# 
  1924  0099                     	;# 
  1925  009A                     	;# 
  1926  009B                     	;# 
  1927  009B                     	;# 
  1928  009C                     	;# 
  1929  009D                     	;# 
  1930  009D                     	;# 
  1931  009E                     	;# 
  1932  009F                     	;# 
  1933  010C                     	;# 
  1934  010C                     	;# 
  1935  010D                     	;# 
  1936  010E                     	;# 
  1937  010F                     	;# 
  1938  010F                     	;# 
  1939  0110                     	;# 
  1940  0111                     	;# 
  1941  0112                     	;# 
  1942  0113                     	;# 
  1943  0114                     	;# 
  1944  0115                     	;# 
  1945  0116                     	;# 
  1946  0117                     	;# 
  1947  0118                     	;# 
  1948  0119                     	;# 
  1949  0119                     	;# 
  1950  0119                     	;# 
  1951  011A                     	;# 
  1952  011A                     	;# 
  1953  011A                     	;# 
  1954  011B                     	;# 
  1955  011B                     	;# 
  1956  011B                     	;# 
  1957  011B                     	;# 
  1958  011B                     	;# 
  1959  011C                     	;# 
  1960  011C                     	;# 
  1961  011C                     	;# 
  1962  011D                     	;# 
  1963  011D                     	;# 
  1964  011D                     	;# 
  1965  011E                     	;# 
  1966  011E                     	;# 
  1967  011E                     	;# 
  1968  011F                     	;# 
  1969  011F                     	;# 
  1970  011F                     	;# 
  1971  011F                     	;# 
  1972  011F                     	;# 
  1973  018C                     	;# 
  1974  018D                     	;# 
  1975  018E                     	;# 
  1976  018F                     	;# 
  1977  0190                     	;# 
  1978  0191                     	;# 
  1979  0192                     	;# 
  1980  0196                     	;# 
  1981  0197                     	;# 
  1982  0198                     	;# 
  1983  0199                     	;# 
  1984  019A                     	;# 
  1985  019B                     	;# 
  1986  019C                     	;# 
  1987  020C                     	;# 
  1988  020D                     	;# 
  1989  020E                     	;# 
  1990  020E                     	;# 
  1991  020F                     	;# 
  1992  020F                     	;# 
  1993  0210                     	;# 
  1994  0210                     	;# 
  1995  0211                     	;# 
  1996  0211                     	;# 
  1997  0212                     	;# 
  1998  0213                     	;# 
  1999  0214                     	;# 
  2000  0214                     	;# 
  2001  0215                     	;# 
  2002  0215                     	;# 
  2003  0216                     	;# 
  2004  0216                     	;# 
  2005  0217                     	;# 
  2006  0217                     	;# 
  2007  0218                     	;# 
  2008  0219                     	;# 
  2009  021A                     	;# 
  2010  021A                     	;# 
  2011  021B                     	;# 
  2012  021B                     	;# 
  2013  021C                     	;# 
  2014  021C                     	;# 
  2015  021D                     	;# 
  2016  021D                     	;# 
  2017  021E                     	;# 
  2018  021F                     	;# 
  2019  028C                     	;# 
  2020  028C                     	;# 
  2021  028D                     	;# 
  2022  028D                     	;# 
  2023  028E                     	;# 
  2024  028F                     	;# 
  2025  0290                     	;# 
  2026  0291                     	;# 
  2027  0292                     	;# 
  2028  0292                     	;# 
  2029  0293                     	;# 
  2030  0293                     	;# 
  2031  0294                     	;# 
  2032  0295                     	;# 
  2033  0296                     	;# 
  2034  0297                     	;# 
  2035  0298                     	;# 
  2036  0298                     	;# 
  2037  0299                     	;# 
  2038  0299                     	;# 
  2039  029A                     	;# 
  2040  029B                     	;# 
  2041  029C                     	;# 
  2042  029D                     	;# 
  2043  029F                     	;# 
  2044  030C                     	;# 
  2045  030C                     	;# 
  2046  030D                     	;# 
  2047  030E                     	;# 
  2048  030F                     	;# 
  2049  0310                     	;# 
  2050  0310                     	;# 
  2051  0311                     	;# 
  2052  0312                     	;# 
  2053  0313                     	;# 
  2054  0314                     	;# 
  2055  0314                     	;# 
  2056  0315                     	;# 
  2057  0316                     	;# 
  2058  0317                     	;# 
  2059  0318                     	;# 
  2060  0318                     	;# 
  2061  0319                     	;# 
  2062  031A                     	;# 
  2063  031B                     	;# 
  2064  038C                     	;# 
  2065  038C                     	;# 
  2066  038D                     	;# 
  2067  038E                     	;# 
  2068  0390                     	;# 
  2069  0390                     	;# 
  2070  0391                     	;# 
  2071  0392                     	;# 
  2072  048C                     	;# 
  2073  048C                     	;# 
  2074  048D                     	;# 
  2075  048E                     	;# 
  2076  048F                     	;# 
  2077  048F                     	;# 
  2078  0490                     	;# 
  2079  0491                     	;# 
  2080  0492                     	;# 
  2081  0492                     	;# 
  2082  0493                     	;# 
  2083  0494                     	;# 
  2084  0495                     	;# 
  2085  0495                     	;# 
  2086  0496                     	;# 
  2087  0497                     	;# 
  2088  0498                     	;# 
  2089  0499                     	;# 
  2090  049A                     	;# 
  2091  049B                     	;# 
  2092  049C                     	;# 
  2093  049D                     	;# 
  2094  058C                     	;# 
  2095  058C                     	;# 
  2096  058D                     	;# 
  2097  058E                     	;# 
  2098  058F                     	;# 
  2099  058F                     	;# 
  2100  0590                     	;# 
  2101  0591                     	;# 
  2102  0592                     	;# 
  2103  0593                     	;# 
  2104  059C                     	;# 
  2105  059C                     	;# 
  2106  059D                     	;# 
  2107  059D                     	;# 
  2108  059E                     	;# 
  2109  059F                     	;# 
  2110  060C                     	;# 
  2111  060C                     	;# 
  2112  060D                     	;# 
  2113  060D                     	;# 
  2114  060E                     	;# 
  2115  060F                     	;# 
  2116  0610                     	;# 
  2117  0611                     	;# 
  2118  0612                     	;# 
  2119  0613                     	;# 
  2120  0614                     	;# 
  2121  0616                     	;# 
  2122  0616                     	;# 
  2123  0617                     	;# 
  2124  0617                     	;# 
  2125  0618                     	;# 
  2126  0619                     	;# 
  2127  061A                     	;# 
  2128  061B                     	;# 
  2129  061C                     	;# 
  2130  061D                     	;# 
  2131  061E                     	;# 
  2132  070C                     	;# 
  2133  070D                     	;# 
  2134  070E                     	;# 
  2135  070F                     	;# 
  2136  0710                     	;# 
  2137  0711                     	;# 
  2138  0712                     	;# 
  2139  0713                     	;# 
  2140  0714                     	;# 
  2141  0716                     	;# 
  2142  0717                     	;# 
  2143  0718                     	;# 
  2144  0719                     	;# 
  2145  071A                     	;# 
  2146  071B                     	;# 
  2147  071C                     	;# 
  2148  071D                     	;# 
  2149  071E                     	;# 
  2150  0796                     	;# 
  2151  0797                     	;# 
  2152  0798                     	;# 
  2153  0799                     	;# 
  2154  079A                     	;# 
  2155  079B                     	;# 
  2156  079C                     	;# 
  2157  079D                     	;# 
  2158  080C                     	;# 
  2159  080D                     	;# 
  2160  080E                     	;# 
  2161  080F                     	;# 
  2162  0810                     	;# 
  2163  0811                     	;# 
  2164  0812                     	;# 
  2165  0813                     	;# 
  2166  0814                     	;# 
  2167  081A                     	;# 
  2168  081A                     	;# 
  2169  081B                     	;# 
  2170  081C                     	;# 
  2171  081C                     	;# 
  2172  081D                     	;# 
  2173  081E                     	;# 
  2174  081F                     	;# 
  2175  088C                     	;# 
  2176  088D                     	;# 
  2177  088E                     	;# 
  2178  088F                     	;# 
  2179  0890                     	;# 
  2180  0891                     	;# 
  2181  0892                     	;# 
  2182  0893                     	;# 
  2183  0895                     	;# 
  2184  0896                     	;# 
  2185  0897                     	;# 
  2186  0898                     	;# 
  2187  0899                     	;# 
  2188  089A                     	;# 
  2189  089B                     	;# 
  2190  090C                     	;# 
  2191  090E                     	;# 
  2192  090F                     	;# 
  2193  091F                     	;# 
  2194  098F                     	;# 
  2195  098F                     	;# 
  2196  0990                     	;# 
  2197  0991                     	;# 
  2198  0992                     	;# 
  2199  0993                     	;# 
  2200  0994                     	;# 
  2201  0995                     	;# 
  2202  0996                     	;# 
  2203  0997                     	;# 
  2204  1E0F                     	;# 
  2205  1E10                     	;# 
  2206  1E11                     	;# 
  2207  1E12                     	;# 
  2208  1E13                     	;# 
  2209  1E14                     	;# 
  2210  1E15                     	;# 
  2211  1E16                     	;# 
  2212  1E17                     	;# 
  2213  1E18                     	;# 
  2214  1E19                     	;# 
  2215  1E1A                     	;# 
  2216  1E1B                     	;# 
  2217  1E1C                     	;# 
  2218  1E1D                     	;# 
  2219  1E1E                     	;# 
  2220  1E1F                     	;# 
  2221  1E20                     	;# 
  2222  1E21                     	;# 
  2223  1E22                     	;# 
  2224  1E23                     	;# 
  2225  1E24                     	;# 
  2226  1E25                     	;# 
  2227  1E26                     	;# 
  2228  1E27                     	;# 
  2229  1E28                     	;# 
  2230  1E29                     	;# 
  2231  1E2A                     	;# 
  2232  1E2B                     	;# 
  2233  1E2C                     	;# 
  2234  1E2D                     	;# 
  2235  1E2E                     	;# 
  2236  1E2F                     	;# 
  2237  1E30                     	;# 
  2238  1E31                     	;# 
  2239  1E32                     	;# 
  2240  1E33                     	;# 
  2241  1E34                     	;# 
  2242  1E35                     	;# 
  2243  1E36                     	;# 
  2244  1E37                     	;# 
  2245  1E8F                     	;# 
  2246  1E90                     	;# 
  2247  1E91                     	;# 
  2248  1E92                     	;# 
  2249  1E93                     	;# 
  2250  1E94                     	;# 
  2251  1E95                     	;# 
  2252  1E96                     	;# 
  2253  1E97                     	;# 
  2254  1E9C                     	;# 
  2255  1E9D                     	;# 
  2256  1E9E                     	;# 
  2257  1EA1                     	;# 
  2258  1EA2                     	;# 
  2259  1EA3                     	;# 
  2260  1EA4                     	;# 
  2261  1EA9                     	;# 
  2262  1EAA                     	;# 
  2263  1EB1                     	;# 
  2264  1EB2                     	;# 
  2265  1EB8                     	;# 
  2266  1EB9                     	;# 
  2267  1EBA                     	;# 
  2268  1EBB                     	;# 
  2269  1EBC                     	;# 
  2270  1EBD                     	;# 
  2271  1EBE                     	;# 
  2272  1EC3                     	;# 
  2273  1EC5                     	;# 
  2274  1EC6                     	;# 
  2275  1EC7                     	;# 
  2276  1EC8                     	;# 
  2277  1EC9                     	;# 
  2278  1ECA                     	;# 
  2279  1ECB                     	;# 
  2280  1ECB                     	;# 
  2281  1ECB                     	;# 
  2282  1ECC                     	;# 
  2283  1ECC                     	;# 
  2284  1ECC                     	;# 
  2285  1F10                     	;# 
  2286  1F11                     	;# 
  2287  1F12                     	;# 
  2288  1F14                     	;# 
  2289  1F15                     	;# 
  2290  1F1C                     	;# 
  2291  1F1D                     	;# 
  2292  1F1E                     	;# 
  2293  1F1F                     	;# 
  2294  1F20                     	;# 
  2295  1F21                     	;# 
  2296  1F22                     	;# 
  2297  1F23                     	;# 
  2298  1F24                     	;# 
  2299  1F25                     	;# 
  2300  1F26                     	;# 
  2301  1F27                     	;# 
  2302  1F38                     	;# 
  2303  1F39                     	;# 
  2304  1F3A                     	;# 
  2305  1F3B                     	;# 
  2306  1F3C                     	;# 
  2307  1F3D                     	;# 
  2308  1F3E                     	;# 
  2309  1F3F                     	;# 
  2310  1F43                     	;# 
  2311  1F44                     	;# 
  2312  1F45                     	;# 
  2313  1F46                     	;# 
  2314  1F47                     	;# 
  2315  1F48                     	;# 
  2316  1F49                     	;# 
  2317  1F4A                     	;# 
  2318  1F4E                     	;# 
  2319  1F4F                     	;# 
  2320  1F50                     	;# 
  2321  1F51                     	;# 
  2322  1F52                     	;# 
  2323  1F53                     	;# 
  2324  1F54                     	;# 
  2325  1F55                     	;# 
  2326  1FE4                     	;# 
  2327  1FE5                     	;# 
  2328  1FE6                     	;# 
  2329  1FE7                     	;# 
  2330  1FE8                     	;# 
  2331  1FE8                     	;# 
  2332  1FE9                     	;# 
  2333  1FEA                     	;# 
  2334  1FEB                     	;# 
  2335  1FED                     	;# 
  2336  1FEE                     	;# 
  2337  1FEF                     	;# 
  2338  0000                     	;# 
  2339  0001                     	;# 
  2340  0002                     	;# 
  2341  0003                     	;# 
  2342  0004                     	;# 
  2343  0005                     	;# 
  2344  0006                     	;# 
  2345  0007                     	;# 
  2346  0008                     	;# 
  2347  0009                     	;# 
  2348  000A                     	;# 
  2349  000B                     	;# 
  2350  000C                     	;# 
  2351  000D                     	;# 
  2352  000E                     	;# 
  2353  0012                     	;# 
  2354  0013                     	;# 
  2355  0014                     	;# 
  2356  0018                     	;# 
  2357  0019                     	;# 
  2358  001A                     	;# 
  2359  008C                     	;# 
  2360  008C                     	;# 
  2361  008D                     	;# 
  2362  008E                     	;# 
  2363  008E                     	;# 
  2364  008F                     	;# 
  2365  0090                     	;# 
  2366  0090                     	;# 
  2367  0091                     	;# 
  2368  0092                     	;# 
  2369  0092                     	;# 
  2370  0093                     	;# 
  2371  0094                     	;# 
  2372  0094                     	;# 
  2373  0095                     	;# 
  2374  0096                     	;# 
  2375  0096                     	;# 
  2376  0097                     	;# 
  2377  0098                     	;# 
  2378  0099                     	;# 
  2379  009A                     	;# 
  2380  009B                     	;# 
  2381  009B                     	;# 
  2382  009C                     	;# 
  2383  009D                     	;# 
  2384  009D                     	;# 
  2385  009E                     	;# 
  2386  009F                     	;# 
  2387  010C                     	;# 
  2388  010C                     	;# 
  2389  010D                     	;# 
  2390  010E                     	;# 
  2391  010F                     	;# 
  2392  010F                     	;# 
  2393  0110                     	;# 
  2394  0111                     	;# 
  2395  0112                     	;# 
  2396  0113                     	;# 
  2397  0114                     	;# 
  2398  0115                     	;# 
  2399  0116                     	;# 
  2400  0117                     	;# 
  2401  0118                     	;# 
  2402  0119                     	;# 
  2403  0119                     	;# 
  2404  0119                     	;# 
  2405  011A                     	;# 
  2406  011A                     	;# 
  2407  011A                     	;# 
  2408  011B                     	;# 
  2409  011B                     	;# 
  2410  011B                     	;# 
  2411  011B                     	;# 
  2412  011B                     	;# 
  2413  011C                     	;# 
  2414  011C                     	;# 
  2415  011C                     	;# 
  2416  011D                     	;# 
  2417  011D                     	;# 
  2418  011D                     	;# 
  2419  011E                     	;# 
  2420  011E                     	;# 
  2421  011E                     	;# 
  2422  011F                     	;# 
  2423  011F                     	;# 
  2424  011F                     	;# 
  2425  011F                     	;# 
  2426  011F                     	;# 
  2427  018C                     	;# 
  2428  018D                     	;# 
  2429  018E                     	;# 
  2430  018F                     	;# 
  2431  0190                     	;# 
  2432  0191                     	;# 
  2433  0192                     	;# 
  2434  0196                     	;# 
  2435  0197                     	;# 
  2436  0198                     	;# 
  2437  0199                     	;# 
  2438  019A                     	;# 
  2439  019B                     	;# 
  2440  019C                     	;# 
  2441  020C                     	;# 
  2442  020D                     	;# 
  2443  020E                     	;# 
  2444  020E                     	;# 
  2445  020F                     	;# 
  2446  020F                     	;# 
  2447  0210                     	;# 
  2448  0210                     	;# 
  2449  0211                     	;# 
  2450  0211                     	;# 
  2451  0212                     	;# 
  2452  0213                     	;# 
  2453  0214                     	;# 
  2454  0214                     	;# 
  2455  0215                     	;# 
  2456  0215                     	;# 
  2457  0216                     	;# 
  2458  0216                     	;# 
  2459  0217                     	;# 
  2460  0217                     	;# 
  2461  0218                     	;# 
  2462  0219                     	;# 
  2463  021A                     	;# 
  2464  021A                     	;# 
  2465  021B                     	;# 
  2466  021B                     	;# 
  2467  021C                     	;# 
  2468  021C                     	;# 
  2469  021D                     	;# 
  2470  021D                     	;# 
  2471  021E                     	;# 
  2472  021F                     	;# 
  2473  028C                     	;# 
  2474  028C                     	;# 
  2475  028D                     	;# 
  2476  028D                     	;# 
  2477  028E                     	;# 
  2478  028F                     	;# 
  2479  0290                     	;# 
  2480  0291                     	;# 
  2481  0292                     	;# 
  2482  0292                     	;# 
  2483  0293                     	;# 
  2484  0293                     	;# 
  2485  0294                     	;# 
  2486  0295                     	;# 
  2487  0296                     	;# 
  2488  0297                     	;# 
  2489  0298                     	;# 
  2490  0298                     	;# 
  2491  0299                     	;# 
  2492  0299                     	;# 
  2493  029A                     	;# 
  2494  029B                     	;# 
  2495  029C                     	;# 
  2496  029D                     	;# 
  2497  029F                     	;# 
  2498  030C                     	;# 
  2499  030C                     	;# 
  2500  030D                     	;# 
  2501  030E                     	;# 
  2502  030F                     	;# 
  2503  0310                     	;# 
  2504  0310                     	;# 
  2505  0311                     	;# 
  2506  0312                     	;# 
  2507  0313                     	;# 
  2508  0314                     	;# 
  2509  0314                     	;# 
  2510  0315                     	;# 
  2511  0316                     	;# 
  2512  0317                     	;# 
  2513  0318                     	;# 
  2514  0318                     	;# 
  2515  0319                     	;# 
  2516  031A                     	;# 
  2517  031B                     	;# 
  2518  038C                     	;# 
  2519  038C                     	;# 
  2520  038D                     	;# 
  2521  038E                     	;# 
  2522  0390                     	;# 
  2523  0390                     	;# 
  2524  0391                     	;# 
  2525  0392                     	;# 
  2526  048C                     	;# 
  2527  048C                     	;# 
  2528  048D                     	;# 
  2529  048E                     	;# 
  2530  048F                     	;# 
  2531  048F                     	;# 
  2532  0490                     	;# 
  2533  0491                     	;# 
  2534  0492                     	;# 
  2535  0492                     	;# 
  2536  0493                     	;# 
  2537  0494                     	;# 
  2538  0495                     	;# 
  2539  0495                     	;# 
  2540  0496                     	;# 
  2541  0497                     	;# 
  2542  0498                     	;# 
  2543  0499                     	;# 
  2544  049A                     	;# 
  2545  049B                     	;# 
  2546  049C                     	;# 
  2547  049D                     	;# 
  2548  058C                     	;# 
  2549  058C                     	;# 
  2550  058D                     	;# 
  2551  058E                     	;# 
  2552  058F                     	;# 
  2553  058F                     	;# 
  2554  0590                     	;# 
  2555  0591                     	;# 
  2556  0592                     	;# 
  2557  0593                     	;# 
  2558  059C                     	;# 
  2559  059C                     	;# 
  2560  059D                     	;# 
  2561  059D                     	;# 
  2562  059E                     	;# 
  2563  059F                     	;# 
  2564  060C                     	;# 
  2565  060C                     	;# 
  2566  060D                     	;# 
  2567  060D                     	;# 
  2568  060E                     	;# 
  2569  060F                     	;# 
  2570  0610                     	;# 
  2571  0611                     	;# 
  2572  0612                     	;# 
  2573  0613                     	;# 
  2574  0614                     	;# 
  2575  0616                     	;# 
  2576  0616                     	;# 
  2577  0617                     	;# 
  2578  0617                     	;# 
  2579  0618                     	;# 
  2580  0619                     	;# 
  2581  061A                     	;# 
  2582  061B                     	;# 
  2583  061C                     	;# 
  2584  061D                     	;# 
  2585  061E                     	;# 
  2586  070C                     	;# 
  2587  070D                     	;# 
  2588  070E                     	;# 
  2589  070F                     	;# 
  2590  0710                     	;# 
  2591  0711                     	;# 
  2592  0712                     	;# 
  2593  0713                     	;# 
  2594  0714                     	;# 
  2595  0716                     	;# 
  2596  0717                     	;# 
  2597  0718                     	;# 
  2598  0719                     	;# 
  2599  071A                     	;# 
  2600  071B                     	;# 
  2601  071C                     	;# 
  2602  071D                     	;# 
  2603  071E                     	;# 
  2604  0796                     	;# 
  2605  0797                     	;# 
  2606  0798                     	;# 
  2607  0799                     	;# 
  2608  079A                     	;# 
  2609  079B                     	;# 
  2610  079C                     	;# 
  2611  079D                     	;# 
  2612  080C                     	;# 
  2613  080D                     	;# 
  2614  080E                     	;# 
  2615  080F                     	;# 
  2616  0810                     	;# 
  2617  0811                     	;# 
  2618  0812                     	;# 
  2619  0813                     	;# 
  2620  0814                     	;# 
  2621  081A                     	;# 
  2622  081A                     	;# 
  2623  081B                     	;# 
  2624  081C                     	;# 
  2625  081C                     	;# 
  2626  081D                     	;# 
  2627  081E                     	;# 
  2628  081F                     	;# 
  2629  088C                     	;# 
  2630  088D                     	;# 
  2631  088E                     	;# 
  2632  088F                     	;# 
  2633  0890                     	;# 
  2634  0891                     	;# 
  2635  0892                     	;# 
  2636  0893                     	;# 
  2637  0895                     	;# 
  2638  0896                     	;# 
  2639  0897                     	;# 
  2640  0898                     	;# 
  2641  0899                     	;# 
  2642  089A                     	;# 
  2643  089B                     	;# 
  2644  090C                     	;# 
  2645  090E                     	;# 
  2646  090F                     	;# 
  2647  091F                     	;# 
  2648  098F                     	;# 
  2649  098F                     	;# 
  2650  0990                     	;# 
  2651  0991                     	;# 
  2652  0992                     	;# 
  2653  0993                     	;# 
  2654  0994                     	;# 
  2655  0995                     	;# 
  2656  0996                     	;# 
  2657  0997                     	;# 
  2658  1E0F                     	;# 
  2659  1E10                     	;# 
  2660  1E11                     	;# 
  2661  1E12                     	;# 
  2662  1E13                     	;# 
  2663  1E14                     	;# 
  2664  1E15                     	;# 
  2665  1E16                     	;# 
  2666  1E17                     	;# 
  2667  1E18                     	;# 
  2668  1E19                     	;# 
  2669  1E1A                     	;# 
  2670  1E1B                     	;# 
  2671  1E1C                     	;# 
  2672  1E1D                     	;# 
  2673  1E1E                     	;# 
  2674  1E1F                     	;# 
  2675  1E20                     	;# 
  2676  1E21                     	;# 
  2677  1E22                     	;# 
  2678  1E23                     	;# 
  2679  1E24                     	;# 
  2680  1E25                     	;# 
  2681  1E26                     	;# 
  2682  1E27                     	;# 
  2683  1E28                     	;# 
  2684  1E29                     	;# 
  2685  1E2A                     	;# 
  2686  1E2B                     	;# 
  2687  1E2C                     	;# 
  2688  1E2D                     	;# 
  2689  1E2E                     	;# 
  2690  1E2F                     	;# 
  2691  1E30                     	;# 
  2692  1E31                     	;# 
  2693  1E32                     	;# 
  2694  1E33                     	;# 
  2695  1E34                     	;# 
  2696  1E35                     	;# 
  2697  1E36                     	;# 
  2698  1E37                     	;# 
  2699  1E8F                     	;# 
  2700  1E90                     	;# 
  2701  1E91                     	;# 
  2702  1E92                     	;# 
  2703  1E93                     	;# 
  2704  1E94                     	;# 
  2705  1E95                     	;# 
  2706  1E96                     	;# 
  2707  1E97                     	;# 
  2708  1E9C                     	;# 
  2709  1E9D                     	;# 
  2710  1E9E                     	;# 
  2711  1EA1                     	;# 
  2712  1EA2                     	;# 
  2713  1EA3                     	;# 
  2714  1EA4                     	;# 
  2715  1EA9                     	;# 
  2716  1EAA                     	;# 
  2717  1EB1                     	;# 
  2718  1EB2                     	;# 
  2719  1EB8                     	;# 
  2720  1EB9                     	;# 
  2721  1EBA                     	;# 
  2722  1EBB                     	;# 
  2723  1EBC                     	;# 
  2724  1EBD                     	;# 
  2725  1EBE                     	;# 
  2726  1EC3                     	;# 
  2727  1EC5                     	;# 
  2728  1EC6                     	;# 
  2729  1EC7                     	;# 
  2730  1EC8                     	;# 
  2731  1EC9                     	;# 
  2732  1ECA                     	;# 
  2733  1ECB                     	;# 
  2734  1ECB                     	;# 
  2735  1ECB                     	;# 
  2736  1ECC                     	;# 
  2737  1ECC                     	;# 
  2738  1ECC                     	;# 
  2739  1F10                     	;# 
  2740  1F11                     	;# 
  2741  1F12                     	;# 
  2742  1F14                     	;# 
  2743  1F15                     	;# 
  2744  1F1C                     	;# 
  2745  1F1D                     	;# 
  2746  1F1E                     	;# 
  2747  1F1F                     	;# 
  2748  1F20                     	;# 
  2749  1F21                     	;# 
  2750  1F22                     	;# 
  2751  1F23                     	;# 
  2752  1F24                     	;# 
  2753  1F25                     	;# 
  2754  1F26                     	;# 
  2755  1F27                     	;# 
  2756  1F38                     	;# 
  2757  1F39                     	;# 
  2758  1F3A                     	;# 
  2759  1F3B                     	;# 
  2760  1F3C                     	;# 
  2761  1F3D                     	;# 
  2762  1F3E                     	;# 
  2763  1F3F                     	;# 
  2764  1F43                     	;# 
  2765  1F44                     	;# 
  2766  1F45                     	;# 
  2767  1F46                     	;# 
  2768  1F47                     	;# 
  2769  1F48                     	;# 
  2770  1F49                     	;# 
  2771  1F4A                     	;# 
  2772  1F4E                     	;# 
  2773  1F4F                     	;# 
  2774  1F50                     	;# 
  2775  1F51                     	;# 
  2776  1F52                     	;# 
  2777  1F53                     	;# 
  2778  1F54                     	;# 
  2779  1F55                     	;# 
  2780  1FE4                     	;# 
  2781  1FE5                     	;# 
  2782  1FE6                     	;# 
  2783  1FE7                     	;# 
  2784  1FE8                     	;# 
  2785  1FE8                     	;# 
  2786  1FE9                     	;# 
  2787  1FEA                     	;# 
  2788  1FEB                     	;# 
  2789  1FED                     	;# 
  2790  1FEE                     	;# 
  2791  1FEF                     	;# 
  2792                           
  2793                           	psect	idataBANK0
  2794  01DB                     __pidataBANK0:
  2795                           
  2796                           ;initializer for _flashAddr
  2797  01DB  34A0               	retlw	160
  2798  01DC  3420               	retlw	32
  2799                           
  2800                           ;initializer for _i
  2801  01DD  3411               	retlw	17
  2802  01DE  3400               	retlw	0
  2803                           
  2804                           	psect	nvBANK0
  2805  0033                     __pnvBANK0:
  2806  0033                     _IOCAF5_InterruptHandler:
  2807  0033                     	ds	2
  2808  0019                     _LATBbits	set	25
  2809  0014                     _TRISC	set	20
  2810  0013                     _TRISB	set	19
  2811  0012                     _TRISA	set	18
  2812  001A                     _LATC	set	26
  2813  0019                     _LATB	set	25
  2814  0018                     _LATA	set	24
  2815  000B                     _INTCONbits	set	11
  2816  070C                     _PIR0bits	set	1804
  2817  0716                     _PIE0bits	set	1814
  2818  079D                     _PMD7	set	1949
  2819  079C                     _PMD6	set	1948
  2820  079B                     _PMD5	set	1947
  2821  079A                     _PMD4	set	1946
  2822  0799                     _PMD3	set	1945
  2823  0798                     _PMD2	set	1944
  2824  0797                     _PMD1	set	1943
  2825  0796                     _PMD0	set	1942
  2826  081F                     _NVMCON2	set	2079
  2827  081C                     _NVMDATL	set	2076
  2828  081D                     _NVMDATH	set	2077
  2829  081E                     _NVMCON1bits	set	2078
  2830  081B                     _NVMADRH	set	2075
  2831  081A                     _NVMADRL	set	2074
  2832  0892                     _OSCTUNE	set	2194
  2833  0893                     _OSCFRQ	set	2195
  2834  0891                     _OSCEN	set	2193
  2835  088F                     _OSCCON3	set	2191
  2836  088D                     _OSCCON1	set	2189
  2837  1F3D                     _IOCAPbits	set	7997
  2838  1F3E                     _IOCANbits	set	7998
  2839  1F3F                     _IOCAFbits	set	7999
  2840  1F52                     _INLVLC	set	8018
  2841  1F47                     _INLVLB	set	8007
  2842  1F3C                     _INLVLA	set	7996
  2843  1F51                     _SLRCONC	set	8017
  2844  1F46                     _SLRCONB	set	8006
  2845  1F3B                     _SLRCONA	set	7995
  2846  1F50                     _ODCONC	set	8016
  2847  1F45                     _ODCONB	set	8005
  2848  1F3A                     _ODCONA	set	7994
  2849  1F4F                     _WPUC	set	8015
  2850  1F39                     _WPUA	set	7993
  2851  1F44                     _WPUB	set	8004
  2852  1F38                     _ANSELA	set	7992
  2853  1F43                     _ANSELB	set	8003
  2854  1F4E                     _ANSELC	set	8014
  2855                           
  2856                           	psect	cinit
  2857  0016                     start_initialization:	
  2858                           ; #config settings
  2859                           
  2860  0016                     __initialization:
  2861                           
  2862                           ; Initialize objects allocated to BANK0
  2863  0016  3181  21DB  3180   	fcall	__pidataBANK0	;fetch initializer
  2864  0019  00AF               	movwf	__pdataBANK0& (0+127)
  2865  001A  3181  21DC  3180   	fcall	__pidataBANK0+1	;fetch initializer
  2866  001D  00B0               	movwf	(__pdataBANK0+1)& (0+127)
  2867  001E  3181  21DD  3180   	fcall	__pidataBANK0+2	;fetch initializer
  2868  0021  00B1               	movwf	(__pdataBANK0+2)& (0+127)
  2869  0022  3181  21DE  3180   	fcall	__pidataBANK0+3	;fetch initializer
  2870  0025  00B2               	movwf	(__pdataBANK0+3)& (0+127)
  2871                           
  2872                           ; Clear objects allocated to BANK0
  2873  0026  01B5               	clrf	__pbssBANK0& (0+127)
  2874  0027  01B6               	clrf	(__pbssBANK0+1)& (0+127)
  2875                           
  2876                           ; Clear objects allocated to BANK1
  2877  0028  30A0               	movlw	low __pbssBANK1
  2878  0029  0084               	movwf	4
  2879  002A  3000               	movlw	high __pbssBANK1
  2880  002B  0085               	movwf	5
  2881  002C  3040               	movlw	64
  2882  002D  3181  21CF  3180   	fcall	clear_ram0
  2883  0030                     end_of_initialization:	
  2884                           ;End of C runtime variable initialization code
  2885                           
  2886  0030                     __end_of__initialization:
  2887  0030  107E               	bcf	int$flags,0	;clear compiler interrupt flag (level 1)
  2888  0031  0140               	movlb	0
  2889  0032  3181  2987         	ljmp	_main	;jump to C main() function
  2890                           
  2891                           	psect	bssBANK0
  2892  0035                     __pbssBANK0:
  2893  0035                     _voice:
  2894  0035                     	ds	2
  2895                           
  2896                           	psect	dataBANK0
  2897  002F                     __pdataBANK0:
  2898  002F                     _flashAddr:
  2899  002F                     	ds	2
  2900  0031                     _i:
  2901  0031                     	ds	2
  2902                           
  2903                           	psect	bssBANK1
  2904  00A0                     __pbssBANK1:
  2905  00A0                     _buffer:
  2906  00A0                     	ds	64
  2907                           
  2908                           	psect	clrtext
  2909  01CF                     clear_ram0:	
  2910                           ;	Called with FSR0 containing the base address, and
  2911                           ;	WREG with the size to clear
  2912                           
  2913  01CF  0064               	clrwdt	;clear the watchdog before getting into this loop
  2914  01D0                     clrloop0:
  2915  01D0  0180               	clrf	0	;clear RAM location pointed to by FSR
  2916  01D1  3101               	addfsr 0,1
  2917  01D2  0B89               	decfsz	9,f	;Have we reached the end of clearing yet?
  2918  01D3  29D0               	goto	clrloop0	;have we reached the end yet?
  2919  01D4  3400               	retlw	0	;all done for this memory range, return
  2920                           
  2921                           	psect	cstackCOMMON
  2922  0070                     __pcstackCOMMON:
  2923  0070                     ?_FLASH_EraseBlock:
  2924  0070                     ?_IOCAF5_DefaultInterruptHandler:	
  2925                           ; 1 bytes @ 0x0
  2926                           
  2927  0070                     ??_IOCAF5_DefaultInterruptHandler:	
  2928                           ; 1 bytes @ 0x0
  2929                           
  2930  0070                     ?_IOCAF5_ISR:	
  2931                           ; 1 bytes @ 0x0
  2932                           
  2933  0070                     ?_PMD_Initialize:	
  2934                           ; 1 bytes @ 0x0
  2935                           
  2936  0070                     ?_OSCILLATOR_Initialize:	
  2937                           ; 1 bytes @ 0x0
  2938                           
  2939  0070                     ?_PIN_MANAGER_Initialize:	
  2940                           ; 1 bytes @ 0x0
  2941                           
  2942  0070                     ?_PIN_MANAGER_IOC:	
  2943                           ; 1 bytes @ 0x0
  2944                           
  2945  0070                     ?_INTERRUPT_InterruptManager:	
  2946                           ; 1 bytes @ 0x0
  2947                           
  2948  0070                     ?_SYSTEM_Initialize:	
  2949                           ; 1 bytes @ 0x0
  2950                           
  2951  0070                     ?_changeflash:	
  2952                           ; 1 bytes @ 0x0
  2953                           
  2954  0070                     ?_fengming:	
  2955                           ; 1 bytes @ 0x0
  2956                           
  2957  0070                     ?_main:	
  2958                           ; 1 bytes @ 0x0
  2959                           
  2960  0070                     ?i1_FLASH_ReadWord:	
  2961                           ; 1 bytes @ 0x0
  2962                           
  2963  0070                     FLASH_EraseBlock@startAddr:	
  2964                           ; 2 bytes @ 0x0
  2965                           
  2966  0070                     i1FLASH_ReadWord@flashAddr:	
  2967                           ; 2 bytes @ 0x0
  2968                           
  2969                           
  2970                           ; 2 bytes @ 0x0
  2971  0070                     	ds	2
  2972  0072                     ??_FLASH_EraseBlock:
  2973  0072                     ??i1_FLASH_ReadWord:	
  2974                           ; 1 bytes @ 0x2
  2975                           
  2976  0072                     FLASH_EraseBlock@GIEBitValue:	
  2977                           ; 1 bytes @ 0x2
  2978                           
  2979  0072                     i1FLASH_ReadWord@GIEBitValue:	
  2980                           ; 1 bytes @ 0x2
  2981                           
  2982                           
  2983                           ; 1 bytes @ 0x2
  2984  0072                     	ds	1
  2985  0073                     ?_FLASH_WriteBlock:
  2986  0073                     FLASH_WriteBlock@writeAddr:	
  2987                           ; 1 bytes @ 0x3
  2988                           
  2989                           
  2990                           ; 2 bytes @ 0x3
  2991  0073                     	ds	2
  2992  0075                     FLASH_WriteBlock@flashWordArray:
  2993                           
  2994                           ; 1 bytes @ 0x5
  2995  0075                     	ds	1
  2996  0076                     ??_FLASH_WriteBlock:
  2997                           
  2998                           ; 1 bytes @ 0x6
  2999  0076                     	ds	3
  3000  0079                     FLASH_WriteBlock@blockStartAddr:
  3001                           
  3002                           ; 2 bytes @ 0x9
  3003  0079                     	ds	2
  3004  007B                     FLASH_WriteBlock@GIEBitValue:
  3005                           
  3006                           ; 1 bytes @ 0xB
  3007  007B                     	ds	1
  3008  007C                     FLASH_WriteBlock@i:
  3009                           
  3010                           ; 1 bytes @ 0xC
  3011  007C                     	ds	1
  3012  007D                     ??_FLASH_WriteWord:
  3013                           
  3014                           ; 1 bytes @ 0xD
  3015  007D                     	ds	1
  3016  007E                     ??_IOCAF5_ISR:
  3017  007E                     ??_PIN_MANAGER_IOC:	
  3018                           ; 1 bytes @ 0xE
  3019                           
  3020  007E                     ??_INTERRUPT_InterruptManager:	
  3021                           ; 1 bytes @ 0xE
  3022                           
  3023                           
  3024                           	psect	cstackBANK0
  3025  0020                     __pcstackBANK0:	
  3026                           ; 1 bytes @ 0xE
  3027                           
  3028  0020                     ?_FLASH_WriteWord:
  3029  0020                     FLASH_WriteWord@flashAddr:	
  3030                           ; 1 bytes @ 0x0
  3031                           
  3032                           
  3033                           ; 2 bytes @ 0x0
  3034  0020                     	ds	2
  3035  0022                     FLASH_WriteWord@ramBuf:
  3036                           
  3037                           ; 1 bytes @ 0x2
  3038  0022                     	ds	1
  3039  0023                     FLASH_WriteWord@word:
  3040                           
  3041                           ; 2 bytes @ 0x3
  3042  0023                     	ds	2
  3043  0025                     FLASH_WriteWord@offset:
  3044                           
  3045                           ; 1 bytes @ 0x5
  3046  0025                     	ds	1
  3047  0026                     FLASH_WriteWord@blockStartAddr:
  3048                           
  3049                           ; 2 bytes @ 0x6
  3050  0026                     	ds	2
  3051  0028                     FLASH_WriteWord@i:
  3052                           
  3053                           ; 1 bytes @ 0x8
  3054  0028                     	ds	1
  3055  0029                     ??_changeflash:
  3056                           
  3057                           ; 1 bytes @ 0x9
  3058  0029                     	ds	1
  3059  002A                     ?_IOCAF5_SetInterruptHandler:
  3060  002A                     ??_PMD_Initialize:	
  3061                           ; 1 bytes @ 0xA
  3062                           
  3063  002A                     ??_OSCILLATOR_Initialize:	
  3064                           ; 1 bytes @ 0xA
  3065                           
  3066  002A                     ?_FLASH_ReadWord:	
  3067                           ; 1 bytes @ 0xA
  3068                           
  3069  002A                     FLASH_ReadWord@flashAddr:	
  3070                           ; 2 bytes @ 0xA
  3071                           
  3072  002A                     IOCAF5_SetInterruptHandler@InterruptHandler:	
  3073                           ; 2 bytes @ 0xA
  3074                           
  3075                           
  3076                           ; 2 bytes @ 0xA
  3077  002A                     	ds	2
  3078  002C                     ??_IOCAF5_SetInterruptHandler:
  3079  002C                     ??_FLASH_ReadWord:	
  3080                           ; 1 bytes @ 0xC
  3081                           
  3082  002C                     ??_PIN_MANAGER_Initialize:	
  3083                           ; 1 bytes @ 0xC
  3084                           
  3085  002C                     ??_SYSTEM_Initialize:	
  3086                           ; 1 bytes @ 0xC
  3087                           
  3088  002C                     FLASH_ReadWord@GIEBitValue:	
  3089                           ; 1 bytes @ 0xC
  3090                           
  3091                           
  3092                           ; 1 bytes @ 0xC
  3093  002C                     	ds	1
  3094  002D                     ??_fengming:
  3095  002D                     fengming@voice:	
  3096                           ; 1 bytes @ 0xD
  3097                           
  3098                           
  3099                           ; 2 bytes @ 0xD
  3100  002D                     	ds	2
  3101  002F                     ??_main:
  3102                           
  3103                           	psect	maintext
  3104  0187                     __pmaintext:	
  3105                           ; 1 bytes @ 0xF
  3106 ;;
  3107 ;;Main: autosize = 0, tempsize = 0, incstack = 0, save=0
  3108 ;;
  3109 ;; *************** function _main *****************
  3110 ;; Defined at:
  3111 ;;		line 80 in file "main.c"
  3112 ;; Parameters:    Size  Location     Type
  3113 ;;		None
  3114 ;; Auto vars:     Size  Location     Type
  3115 ;;		None
  3116 ;; Return value:  Size  Location     Type
  3117 ;;                  1    wreg      void 
  3118 ;; Registers used:
  3119 ;;		wreg, status,2, status,0, pclath, cstack
  3120 ;; Tracked objects:
  3121 ;;		On entry : B3F/0
  3122 ;;		On exit  : 0/0
  3123 ;;		Unchanged: 0/0
  3124 ;; Data sizes:     COMMON   BANK0   BANK1   BANK2   BANK3   BANK4   BANK5   BANK6   BANK7   BANK8   BANK9  BANK10  BANK1
      +1  BANK12  BANK13  BANK14  BANK15  BANK16  BANK17  BANK18  BANK19  BANK20  BANK21  BANK22  BANK23  BANK24  BANK25
  3125 ;;      Params:         0       0       0       0       0       0       0       0       0       0       0       0       
      +0       0       0       0       0       0       0       0       0       0       0       0       0       0       0
  3126 ;;      Locals:         0       0       0       0       0       0       0       0       0       0       0       0       
      +0       0       0       0       0       0       0       0       0       0       0       0       0       0       0
  3127 ;;      Temps:          0       0       0       0       0       0       0       0       0       0       0       0       
      +0       0       0       0       0       0       0       0       0       0       0       0       0       0       0
  3128 ;;      Totals:         0       0       0       0       0       0       0       0       0       0       0       0       
      +0       0       0       0       0       0       0       0       0       0       0       0       0       0       0
  3129 ;;Total ram usage:        0 bytes
  3130 ;; Hardware stack levels required when called: 10
  3131 ;; This function calls:
  3132 ;;		_IOCAF5_SetInterruptHandler
  3133 ;;		_SYSTEM_Initialize
  3134 ;;		_fengming
  3135 ;; This function is called by:
  3136 ;;		Startup code after reset
  3137 ;; This function uses a non-reentrant model
  3138 ;;
  3139                           
  3140                           
  3141                           ;psect for function _main
  3142  0187                     _main:
  3143  0187                     l1298:	
  3144                           ;incstack = 0
  3145                           ; Regs used in _main: [wreg+status,2+status,0+pclath+cstack]
  3146                           
  3147                           
  3148                           ;main.c: 83:     SYSTEM_Initialize();
  3149  0187  3181  21A9  3181   	fcall	_SYSTEM_Initialize
  3150  018A                     l1300:
  3151                           
  3152                           ;main.c: 89:     (INTCONbits.GIE = 1);
  3153  018A  178B               	bsf	11,7	;volatile
  3154  018B                     l1302:
  3155                           
  3156                           ;main.c: 92:     (INTCONbits.PEIE = 1);
  3157  018B  170B               	bsf	11,6	;volatile
  3158                           
  3159                           ;main.c: 99:    IOCAF5_SetInterruptHandler(changeflash);
  3160  018C  3071               	movlw	low _changeflash
  3161  018D  0140               	movlb	0	; select bank0
  3162  018E  00AA               	movwf	IOCAF5_SetInterruptHandler@InterruptHandler
  3163  018F  3001               	movlw	high _changeflash
  3164  0190  00AB               	movwf	IOCAF5_SetInterruptHandler@InterruptHandler+1
  3165  0191  3181  21D5  3181   	fcall	_IOCAF5_SetInterruptHandler
  3166  0194                     l215:	
  3167                           ;main.c: 101:     while (1)
  3168                           
  3169                           
  3170                           ;main.c: 102:     {;main.c: 103:         fengming();
  3171  0194  3181  215B  3181   	fcall	_fengming
  3172  0197  2994               	goto	l215
  3173  0198  3180  2814         	ljmp	start
  3174  019A                     __end_of_main:
  3175                           
  3176                           	psect	text1
  3177  015B                     __ptext1:	
  3178 ;; *************** function _fengming *****************
  3179 ;; Defined at:
  3180 ;;		line 54 in file "main.c"
  3181 ;; Parameters:    Size  Location     Type
  3182 ;;		None
  3183 ;; Auto vars:     Size  Location     Type
  3184 ;;  voice           2   13[BANK0 ] unsigned short 
  3185 ;; Return value:  Size  Location     Type
  3186 ;;                  1    wreg      void 
  3187 ;; Registers used:
  3188 ;;		wreg, status,2, status,0, pclath, cstack
  3189 ;; Tracked objects:
  3190 ;;		On entry : 0/0
  3191 ;;		On exit  : 0/0
  3192 ;;		Unchanged: 0/0
  3193 ;; Data sizes:     COMMON   BANK0   BANK1   BANK2   BANK3   BANK4   BANK5   BANK6   BANK7   BANK8   BANK9  BANK10  BANK1
      +1  BANK12  BANK13  BANK14  BANK15  BANK16  BANK17  BANK18  BANK19  BANK20  BANK21  BANK22  BANK23  BANK24  BANK25
  3194 ;;      Params:         0       0       0       0       0       0       0       0       0       0       0       0       
      +0       0       0       0       0       0       0       0       0       0       0       0       0       0       0
  3195 ;;      Locals:         0       2       0       0       0       0       0       0       0       0       0       0       
      +0       0       0       0       0       0       0       0       0       0       0       0       0       0       0
  3196 ;;      Temps:          0       0       0       0       0       0       0       0       0       0       0       0       
      +0       0       0       0       0       0       0       0       0       0       0       0       0       0       0
  3197 ;;      Totals:         0       2       0       0       0       0       0       0       0       0       0       0       
      +0       0       0       0       0       0       0       0       0       0       0       0       0       0       0
  3198 ;;Total ram usage:        2 bytes
  3199 ;; Hardware stack levels used: 1
  3200 ;; Hardware stack levels required when called: 8
  3201 ;; This function calls:
  3202 ;;		_FLASH_ReadWord
  3203 ;; This function is called by:
  3204 ;;		_main
  3205 ;; This function uses a non-reentrant model
  3206 ;;
  3207                           
  3208                           
  3209                           ;psect for function _fengming
  3210  015B                     _fengming:
  3211  015B                     l1288:	
  3212                           ;incstack = 0
  3213                           ; Regs used in _fengming: [wreg+status,2+status,0+pclath+cstack]
  3214                           
  3215                           
  3216                           ;main.c: 56:     uint16_t voice;;main.c: 57:     voice = FLASH_ReadWord(flashAddr);
  3217  015B  0140               	movlb	0	; select bank0
  3218  015C  0830               	movf	_flashAddr+1,w
  3219  015D  00AB               	movwf	FLASH_ReadWord@flashAddr+1
  3220  015E  082F               	movf	_flashAddr,w
  3221  015F  00AA               	movwf	FLASH_ReadWord@flashAddr
  3222  0160  3181  2106  3181   	fcall	_FLASH_ReadWord
  3223  0163  0140               	movlb	0	; select bank0
  3224  0164  082B               	movf	?_FLASH_ReadWord+1,w
  3225  0165  00AE               	movwf	fengming@voice+1
  3226  0166  082A               	movf	?_FLASH_ReadWord,w
  3227  0167  00AD               	movwf	fengming@voice
  3228  0168                     l1290:
  3229                           
  3230                           ;main.c: 58:     if(voice % 2 == 0)
  3231  0168  182D               	btfsc	fengming@voice,0
  3232  0169  296B               	goto	u171
  3233  016A  296C               	goto	u170
  3234  016B                     u171:
  3235  016B  296F               	goto	l208
  3236  016C                     u170:
  3237  016C                     l203:	
  3238                           ;main.c: 59:     {;main.c: 60:         do { LATBbits.LATB5 = 0; } while(0);
  3239                           
  3240  016C  1299               	bcf	25,5	;volatile
  3241  016D                     l205:	
  3242                           ;main.c: 62:         do { LATBbits.LATB5 = 1; } while(0);
  3243                           
  3244  016D  1699               	bsf	25,5	;volatile
  3245  016E  2970               	goto	l210
  3246  016F                     l208:	
  3247                           ;main.c: 66:     {;main.c: 67:         do { LATBbits.LATB5 = 1; } while(0);
  3248                           
  3249  016F  1699               	bsf	25,5	;volatile
  3250  0170                     l210:
  3251  0170  0008               	return
  3252  0171                     __end_of_fengming:
  3253                           
  3254                           	psect	text2
  3255  0106                     __ptext2:	
  3256 ;; *************** function _FLASH_ReadWord *****************
  3257 ;; Defined at:
  3258 ;;		line 58 in file "mcc_generated_files/memory.c"
  3259 ;; Parameters:    Size  Location     Type
  3260 ;;  flashAddr       2   10[BANK0 ] unsigned short 
  3261 ;; Auto vars:     Size  Location     Type
  3262 ;;  GIEBitValue     1   12[BANK0 ] unsigned char 
  3263 ;; Return value:  Size  Location     Type
  3264 ;;                  2   10[BANK0 ] unsigned short 
  3265 ;; Registers used:
  3266 ;;		wreg, status,2, status,0
  3267 ;; Tracked objects:
  3268 ;;		On entry : 0/0
  3269 ;;		On exit  : 0/0
  3270 ;;		Unchanged: 0/0
  3271 ;; Data sizes:     COMMON   BANK0   BANK1   BANK2   BANK3   BANK4   BANK5   BANK6   BANK7   BANK8   BANK9  BANK10  BANK1
      +1  BANK12  BANK13  BANK14  BANK15  BANK16  BANK17  BANK18  BANK19  BANK20  BANK21  BANK22  BANK23  BANK24  BANK25
  3272 ;;      Params:         0       2       0       0       0       0       0       0       0       0       0       0       
      +0       0       0       0       0       0       0       0       0       0       0       0       0       0       0
  3273 ;;      Locals:         0       1       0       0       0       0       0       0       0       0       0       0       
      +0       0       0       0       0       0       0       0       0       0       0       0       0       0       0
  3274 ;;      Temps:          0       0       0       0       0       0       0       0       0       0       0       0       
      +0       0       0       0       0       0       0       0       0       0       0       0       0       0       0
  3275 ;;      Totals:         0       3       0       0       0       0       0       0       0       0       0       0       
      +0       0       0       0       0       0       0       0       0       0       0       0       0       0       0
  3276 ;;Total ram usage:        3 bytes
  3277 ;; Hardware stack levels used: 1
  3278 ;; Hardware stack levels required when called: 7
  3279 ;; This function calls:
  3280 ;;		Nothing
  3281 ;; This function is called by:
  3282 ;;		_fengming
  3283 ;; This function uses a non-reentrant model
  3284 ;;
  3285                           
  3286                           
  3287                           ;psect for function _FLASH_ReadWord
  3288  0106                     _FLASH_ReadWord:
  3289  0106                     l1204:	
  3290                           ;incstack = 0
  3291                           ; Regs used in _FLASH_ReadWord: [wreg+status,2+status,0]
  3292                           
  3293                           
  3294                           ;mcc_generated_files/memory.c: 58: uint16_t FLASH_ReadWord(uint16_t flashAddr);mcc_gener
      +                          ated_files/memory.c: 59: {;mcc_generated_files/memory.c: 60:     uint8_t GIEBitValue = I
      +                          NTCONbits.GIE;
  3295  0106  3000               	movlw	0
  3296  0107  1B8B               	btfsc	11,7	;volatile
  3297  0108  3001               	movlw	1
  3298  0109  0140               	movlb	0	; select bank0
  3299  010A  00AC               	movwf	FLASH_ReadWord@GIEBitValue
  3300  010B                     l1206:
  3301                           
  3302                           ;mcc_generated_files/memory.c: 62:     INTCONbits.GIE = 0;
  3303  010B  138B               	bcf	11,7	;volatile
  3304  010C                     l1208:
  3305                           
  3306                           ;mcc_generated_files/memory.c: 63:     NVMADRL = (flashAddr & 0x00FF);
  3307  010C  082A               	movf	FLASH_ReadWord@flashAddr,w
  3308  010D  0150               	movlb	16	; select bank16
  3309  010E  009A               	movwf	26	;volatile
  3310  010F                     l1210:
  3311                           
  3312                           ;mcc_generated_files/memory.c: 64:     NVMADRH = ((flashAddr & 0xFF00) >> 8);
  3313  010F  0140               	movlb	0	; select bank0
  3314  0110  082B               	movf	FLASH_ReadWord@flashAddr+1,w
  3315  0111  0150               	movlb	16	; select bank16
  3316  0112  009B               	movwf	27	;volatile
  3317  0113                     l1212:
  3318                           
  3319                           ;mcc_generated_files/memory.c: 66:     NVMCON1bits.NVMREGS = 0;
  3320  0113  131E               	bcf	30,6	;volsfr
  3321  0114                     l1214:
  3322                           
  3323                           ;mcc_generated_files/memory.c: 67:     NVMCON1bits.RD = 1;
  3324  0114  141E               	bsf	30,0	;volsfr
  3325  0115                     l1216:
  3326                           
  3327                           ;mcc_generated_files/memory.c: 68:     __nop();
  3328  0115  0000               	nop
  3329  0116                     l1218:
  3330                           
  3331                           ;mcc_generated_files/memory.c: 69:     __nop();
  3332  0116  0000               	nop
  3333  0117                     l1220:
  3334                           
  3335                           ;mcc_generated_files/memory.c: 70:     INTCONbits.GIE = GIEBitValue;
  3336  0117  0140               	movlb	0	; select bank0
  3337  0118  0C2C               	rrf	FLASH_ReadWord@GIEBitValue,w
  3338  0119  1C03               	skipc
  3339  011A  138B               	bcf	11,7	;volatile
  3340  011B  1803               	skipnc
  3341  011C  178B               	bsf	11,7	;volatile
  3342  011D                     l1222:
  3343                           
  3344                           ;mcc_generated_files/memory.c: 72:     return ((uint16_t)((NVMDATH << 8) | NVMDATL));
  3345  011D  0150               	movlb	16	; select bank16
  3346  011E  081D               	movf	29,w	;volatile
  3347  011F  0140               	movlb	0	; select bank0
  3348  0120  00AB               	movwf	?_FLASH_ReadWord+1
  3349  0121  0150               	movlb	16	; select bank16
  3350  0122  081C               	movf	28,w	;volatile
  3351  0123  0140               	movlb	0	; select bank0
  3352  0124  00AA               	movwf	?_FLASH_ReadWord
  3353  0125                     l23:
  3354  0125  0008               	return
  3355  0126                     __end_of_FLASH_ReadWord:
  3356                           
  3357                           	psect	text3
  3358  01A9                     __ptext3:	
  3359 ;; *************** function _SYSTEM_Initialize *****************
  3360 ;; Defined at:
  3361 ;;		line 50 in file "mcc_generated_files/mcc.c"
  3362 ;; Parameters:    Size  Location     Type
  3363 ;;		None
  3364 ;; Auto vars:     Size  Location     Type
  3365 ;;		None
  3366 ;; Return value:  Size  Location     Type
  3367 ;;                  1    wreg      void 
  3368 ;; Registers used:
  3369 ;;		wreg, status,2, status,0, pclath, cstack
  3370 ;; Tracked objects:
  3371 ;;		On entry : 0/0
  3372 ;;		On exit  : 0/0
  3373 ;;		Unchanged: 0/0
  3374 ;; Data sizes:     COMMON   BANK0   BANK1   BANK2   BANK3   BANK4   BANK5   BANK6   BANK7   BANK8   BANK9  BANK10  BANK1
      +1  BANK12  BANK13  BANK14  BANK15  BANK16  BANK17  BANK18  BANK19  BANK20  BANK21  BANK22  BANK23  BANK24  BANK25
  3375 ;;      Params:         0       0       0       0       0       0       0       0       0       0       0       0       
      +0       0       0       0       0       0       0       0       0       0       0       0       0       0       0
  3376 ;;      Locals:         0       0       0       0       0       0       0       0       0       0       0       0       
      +0       0       0       0       0       0       0       0       0       0       0       0       0       0       0
  3377 ;;      Temps:          0       0       0       0       0       0       0       0       0       0       0       0       
      +0       0       0       0       0       0       0       0       0       0       0       0       0       0       0
  3378 ;;      Totals:         0       0       0       0       0       0       0       0       0       0       0       0       
      +0       0       0       0       0       0       0       0       0       0       0       0       0       0       0
  3379 ;;Total ram usage:        0 bytes
  3380 ;; Hardware stack levels used: 1
  3381 ;; Hardware stack levels required when called: 9
  3382 ;; This function calls:
  3383 ;;		_OSCILLATOR_Initialize
  3384 ;;		_PIN_MANAGER_Initialize
  3385 ;;		_PMD_Initialize
  3386 ;; This function is called by:
  3387 ;;		_main
  3388 ;; This function uses a non-reentrant model
  3389 ;;
  3390                           
  3391                           
  3392                           ;psect for function _SYSTEM_Initialize
  3393  01A9                     _SYSTEM_Initialize:
  3394  01A9                     l1282:	
  3395                           ;incstack = 0
  3396                           ; Regs used in _SYSTEM_Initialize: [wreg+status,2+status,0+pclath+cstack]
  3397                           
  3398                           
  3399                           ;mcc_generated_files/mcc.c: 52:     PMD_Initialize();
  3400  01A9  3181  21B3  3181   	fcall	_PMD_Initialize
  3401  01AC                     l1284:
  3402                           
  3403                           ;mcc_generated_files/mcc.c: 53:     PIN_MANAGER_Initialize();
  3404  01AC  3180  20D5  3181   	fcall	_PIN_MANAGER_Initialize
  3405  01AF                     l1286:
  3406                           
  3407                           ;mcc_generated_files/mcc.c: 54:     OSCILLATOR_Initialize();
  3408  01AF  3181  21BD  3181   	fcall	_OSCILLATOR_Initialize
  3409  01B2                     l170:
  3410  01B2  0008               	return
  3411  01B3                     __end_of_SYSTEM_Initialize:
  3412                           
  3413                           	psect	text4
  3414  01B3                     __ptext4:	
  3415 ;; *************** function _PMD_Initialize *****************
  3416 ;; Defined at:
  3417 ;;		line 71 in file "mcc_generated_files/mcc.c"
  3418 ;; Parameters:    Size  Location     Type
  3419 ;;		None
  3420 ;; Auto vars:     Size  Location     Type
  3421 ;;		None
  3422 ;; Return value:  Size  Location     Type
  3423 ;;                  1    wreg      void 
  3424 ;; Registers used:
  3425 ;;		status,2
  3426 ;; Tracked objects:
  3427 ;;		On entry : 0/0
  3428 ;;		On exit  : 0/0
  3429 ;;		Unchanged: 0/0
  3430 ;; Data sizes:     COMMON   BANK0   BANK1   BANK2   BANK3   BANK4   BANK5   BANK6   BANK7   BANK8   BANK9  BANK10  BANK1
      +1  BANK12  BANK13  BANK14  BANK15  BANK16  BANK17  BANK18  BANK19  BANK20  BANK21  BANK22  BANK23  BANK24  BANK25
  3431 ;;      Params:         0       0       0       0       0       0       0       0       0       0       0       0       
      +0       0       0       0       0       0       0       0       0       0       0       0       0       0       0
  3432 ;;      Locals:         0       0       0       0       0       0       0       0       0       0       0       0       
      +0       0       0       0       0       0       0       0       0       0       0       0       0       0       0
  3433 ;;      Temps:          0       0       0       0       0       0       0       0       0       0       0       0       
      +0       0       0       0       0       0       0       0       0       0       0       0       0       0       0
  3434 ;;      Totals:         0       0       0       0       0       0       0       0       0       0       0       0       
      +0       0       0       0       0       0       0       0       0       0       0       0       0       0       0
  3435 ;;Total ram usage:        0 bytes
  3436 ;; Hardware stack levels used: 1
  3437 ;; Hardware stack levels required when called: 7
  3438 ;; This function calls:
  3439 ;;		Nothing
  3440 ;; This function is called by:
  3441 ;;		_SYSTEM_Initialize
  3442 ;; This function uses a non-reentrant model
  3443 ;;
  3444                           
  3445                           
  3446                           ;psect for function _PMD_Initialize
  3447  01B3                     _PMD_Initialize:
  3448  01B3                     l1268:	
  3449                           ;incstack = 0
  3450                           ; Regs used in _PMD_Initialize: [status,2]
  3451                           
  3452                           
  3453                           ;mcc_generated_files/mcc.c: 74:     PMD0 = 0x00;
  3454  01B3  014F               	movlb	15	; select bank15
  3455  01B4  0196               	clrf	22	;volatile
  3456                           
  3457                           ;mcc_generated_files/mcc.c: 76:     PMD1 = 0x00;
  3458  01B5  0197               	clrf	23	;volatile
  3459                           
  3460                           ;mcc_generated_files/mcc.c: 78:     PMD2 = 0x00;
  3461  01B6  0198               	clrf	24	;volatile
  3462                           
  3463                           ;mcc_generated_files/mcc.c: 80:     PMD3 = 0x00;
  3464  01B7  0199               	clrf	25	;volatile
  3465                           
  3466                           ;mcc_generated_files/mcc.c: 82:     PMD4 = 0x00;
  3467  01B8  019A               	clrf	26	;volatile
  3468                           
  3469                           ;mcc_generated_files/mcc.c: 84:     PMD5 = 0x00;
  3470  01B9  019B               	clrf	27	;volatile
  3471                           
  3472                           ;mcc_generated_files/mcc.c: 86:     PMD6 = 0x00;
  3473  01BA  019C               	clrf	28	;volatile
  3474                           
  3475                           ;mcc_generated_files/mcc.c: 88:     PMD7 = 0x00;
  3476  01BB  019D               	clrf	29	;volatile
  3477  01BC                     l176:
  3478  01BC  0008               	return
  3479  01BD                     __end_of_PMD_Initialize:
  3480                           
  3481                           	psect	text5
  3482  00D5                     __ptext5:	
  3483 ;; *************** function _PIN_MANAGER_Initialize *****************
  3484 ;; Defined at:
  3485 ;;		line 57 in file "mcc_generated_files/pin_manager.c"
  3486 ;; Parameters:    Size  Location     Type
  3487 ;;		None
  3488 ;; Auto vars:     Size  Location     Type
  3489 ;;		None
  3490 ;; Return value:  Size  Location     Type
  3491 ;;                  1    wreg      void 
  3492 ;; Registers used:
  3493 ;;		wreg, status,2, status,0, pclath, cstack
  3494 ;; Tracked objects:
  3495 ;;		On entry : 0/0
  3496 ;;		On exit  : 0/0
  3497 ;;		Unchanged: 0/0
  3498 ;; Data sizes:     COMMON   BANK0   BANK1   BANK2   BANK3   BANK4   BANK5   BANK6   BANK7   BANK8   BANK9  BANK10  BANK1
      +1  BANK12  BANK13  BANK14  BANK15  BANK16  BANK17  BANK18  BANK19  BANK20  BANK21  BANK22  BANK23  BANK24  BANK25
  3499 ;;      Params:         0       0       0       0       0       0       0       0       0       0       0       0       
      +0       0       0       0       0       0       0       0       0       0       0       0       0       0       0
  3500 ;;      Locals:         0       0       0       0       0       0       0       0       0       0       0       0       
      +0       0       0       0       0       0       0       0       0       0       0       0       0       0       0
  3501 ;;      Temps:          0       0       0       0       0       0       0       0       0       0       0       0       
      +0       0       0       0       0       0       0       0       0       0       0       0       0       0       0
  3502 ;;      Totals:         0       0       0       0       0       0       0       0       0       0       0       0       
      +0       0       0       0       0       0       0       0       0       0       0       0       0       0       0
  3503 ;;Total ram usage:        0 bytes
  3504 ;; Hardware stack levels used: 1
  3505 ;; Hardware stack levels required when called: 8
  3506 ;; This function calls:
  3507 ;;		_IOCAF5_SetInterruptHandler
  3508 ;; This function is called by:
  3509 ;;		_SYSTEM_Initialize
  3510 ;; This function uses a non-reentrant model
  3511 ;;
  3512                           
  3513                           
  3514                           ;psect for function _PIN_MANAGER_Initialize
  3515  00D5                     _PIN_MANAGER_Initialize:
  3516  00D5                     l1226:	
  3517                           ;incstack = 0
  3518                           ; Regs used in _PIN_MANAGER_Initialize: [wreg+status,2+status,0+pclath+cstack]
  3519                           
  3520                           
  3521                           ;mcc_generated_files/pin_manager.c: 62:     LATA = 0x00;
  3522  00D5  0140               	movlb	0	; select bank0
  3523  00D6  0198               	clrf	24	;volatile
  3524                           
  3525                           ;mcc_generated_files/pin_manager.c: 63:     LATB = 0x00;
  3526  00D7  0199               	clrf	25	;volatile
  3527                           
  3528                           ;mcc_generated_files/pin_manager.c: 64:     LATC = 0x00;
  3529  00D8  019A               	clrf	26	;volatile
  3530  00D9                     l1228:
  3531                           
  3532                           ;mcc_generated_files/pin_manager.c: 69:     TRISA = 0x3F;
  3533  00D9  303F               	movlw	63
  3534  00DA  0092               	movwf	18	;volatile
  3535  00DB                     l1230:
  3536                           
  3537                           ;mcc_generated_files/pin_manager.c: 70:     TRISB = 0xD0;
  3538  00DB  30D0               	movlw	208
  3539  00DC  0093               	movwf	19	;volatile
  3540  00DD                     l1232:
  3541                           
  3542                           ;mcc_generated_files/pin_manager.c: 71:     TRISC = 0xFF;
  3543  00DD  30FF               	movlw	255
  3544  00DE  0094               	movwf	20	;volatile
  3545  00DF                     l1234:
  3546                           
  3547                           ;mcc_generated_files/pin_manager.c: 76:     ANSELC = 0xFF;
  3548  00DF  30FF               	movlw	255
  3549  00E0  017E               	movlb	62	; select bank62
  3550  00E1  00CE               	movwf	78	;volatile
  3551  00E2                     l1236:
  3552                           
  3553                           ;mcc_generated_files/pin_manager.c: 77:     ANSELB = 0xF0;
  3554  00E2  30F0               	movlw	240
  3555  00E3  00C3               	movwf	67	;volatile
  3556  00E4                     l1238:
  3557                           
  3558                           ;mcc_generated_files/pin_manager.c: 78:     ANSELA = 0x17;
  3559  00E4  3017               	movlw	23
  3560  00E5  00B8               	movwf	56	;volatile
  3561                           
  3562                           ;mcc_generated_files/pin_manager.c: 83:     WPUB = 0x00;
  3563  00E6  01C4               	clrf	68	;volatile
  3564                           
  3565                           ;mcc_generated_files/pin_manager.c: 84:     WPUA = 0x00;
  3566  00E7  01B9               	clrf	57	;volatile
  3567                           
  3568                           ;mcc_generated_files/pin_manager.c: 85:     WPUC = 0x00;
  3569  00E8  01CF               	clrf	79	;volatile
  3570                           
  3571                           ;mcc_generated_files/pin_manager.c: 90:     ODCONA = 0x00;
  3572  00E9  01BA               	clrf	58	;volatile
  3573                           
  3574                           ;mcc_generated_files/pin_manager.c: 91:     ODCONB = 0x00;
  3575  00EA  01C5               	clrf	69	;volatile
  3576                           
  3577                           ;mcc_generated_files/pin_manager.c: 92:     ODCONC = 0x00;
  3578  00EB  01D0               	clrf	80	;volatile
  3579  00EC                     l1240:
  3580                           
  3581                           ;mcc_generated_files/pin_manager.c: 97:     SLRCONA = 0x37;
  3582  00EC  3037               	movlw	55
  3583  00ED  00BB               	movwf	59	;volatile
  3584  00EE                     l1242:
  3585                           
  3586                           ;mcc_generated_files/pin_manager.c: 98:     SLRCONB = 0xF0;
  3587  00EE  30F0               	movlw	240
  3588  00EF  00C6               	movwf	70	;volatile
  3589  00F0                     l1244:
  3590                           
  3591                           ;mcc_generated_files/pin_manager.c: 99:     SLRCONC = 0xFF;
  3592  00F0  30FF               	movlw	255
  3593  00F1  00D1               	movwf	81	;volatile
  3594  00F2                     l1246:
  3595                           
  3596                           ;mcc_generated_files/pin_manager.c: 104:     INLVLA = 0x3F;
  3597  00F2  303F               	movlw	63
  3598  00F3  00BC               	movwf	60	;volatile
  3599  00F4                     l1248:
  3600                           
  3601                           ;mcc_generated_files/pin_manager.c: 105:     INLVLB = 0xF0;
  3602  00F4  30F0               	movlw	240
  3603  00F5  00C7               	movwf	71	;volatile
  3604  00F6                     l1250:
  3605                           
  3606                           ;mcc_generated_files/pin_manager.c: 106:     INLVLC = 0xFF;
  3607  00F6  30FF               	movlw	255
  3608  00F7  00D2               	movwf	82	;volatile
  3609  00F8                     l1252:
  3610                           
  3611                           ;mcc_generated_files/pin_manager.c: 113:     IOCAFbits.IOCAF5 = 0;
  3612  00F8  12BF               	bcf	63,5	;volatile
  3613  00F9                     l1254:
  3614                           
  3615                           ;mcc_generated_files/pin_manager.c: 115:     IOCANbits.IOCAN5 = 1;
  3616  00F9  16BE               	bsf	62,5	;volatile
  3617  00FA                     l1256:
  3618                           
  3619                           ;mcc_generated_files/pin_manager.c: 117:     IOCAPbits.IOCAP5 = 1;
  3620  00FA  16BD               	bsf	61,5	;volatile
  3621  00FB                     l1258:
  3622                           
  3623                           ;mcc_generated_files/pin_manager.c: 122:     IOCAF5_SetInterruptHandler(IOCAF5_DefaultIn
      +                          terruptHandler);
  3624  00FB  30DF               	movlw	low _IOCAF5_DefaultInterruptHandler
  3625  00FC  0140               	movlb	0	; select bank0
  3626  00FD  00AA               	movwf	IOCAF5_SetInterruptHandler@InterruptHandler
  3627  00FE  3001               	movlw	high _IOCAF5_DefaultInterruptHandler
  3628  00FF  00AB               	movwf	IOCAF5_SetInterruptHandler@InterruptHandler+1
  3629  0100  3181  21D5  3180   	fcall	_IOCAF5_SetInterruptHandler
  3630  0103                     l1260:
  3631                           
  3632                           ;mcc_generated_files/pin_manager.c: 125:     PIE0bits.IOCIE = 1;
  3633  0103  014E               	movlb	14	; select bank14
  3634  0104  1616               	bsf	22,4	;volatile
  3635  0105                     l108:
  3636  0105  0008               	return
  3637  0106                     __end_of_PIN_MANAGER_Initialize:
  3638                           
  3639                           	psect	text6
  3640  01D5                     __ptext6:	
  3641 ;; *************** function _IOCAF5_SetInterruptHandler *****************
  3642 ;; Defined at:
  3643 ;;		line 156 in file "mcc_generated_files/pin_manager.c"
  3644 ;; Parameters:    Size  Location     Type
  3645 ;;  InterruptHan    2   10[BANK0 ] PTR FTN()void 
  3646 ;;		 -> changeflash(1), IOCAF5_DefaultInterruptHandler(1), 
  3647 ;; Auto vars:     Size  Location     Type
  3648 ;;		None
  3649 ;; Return value:  Size  Location     Type
  3650 ;;                  1    wreg      void 
  3651 ;; Registers used:
  3652 ;;		wreg
  3653 ;; Tracked objects:
  3654 ;;		On entry : 0/0
  3655 ;;		On exit  : 0/0
  3656 ;;		Unchanged: 0/0
  3657 ;; Data sizes:     COMMON   BANK0   BANK1   BANK2   BANK3   BANK4   BANK5   BANK6   BANK7   BANK8   BANK9  BANK10  BANK1
      +1  BANK12  BANK13  BANK14  BANK15  BANK16  BANK17  BANK18  BANK19  BANK20  BANK21  BANK22  BANK23  BANK24  BANK25
  3658 ;;      Params:         0       2       0       0       0       0       0       0       0       0       0       0       
      +0       0       0       0       0       0       0       0       0       0       0       0       0       0       0
  3659 ;;      Locals:         0       0       0       0       0       0       0       0       0       0       0       0       
      +0       0       0       0       0       0       0       0       0       0       0       0       0       0       0
  3660 ;;      Temps:          0       0       0       0       0       0       0       0       0       0       0       0       
      +0       0       0       0       0       0       0       0       0       0       0       0       0       0       0
  3661 ;;      Totals:         0       2       0       0       0       0       0       0       0       0       0       0       
      +0       0       0       0       0       0       0       0       0       0       0       0       0       0       0
  3662 ;;Total ram usage:        2 bytes
  3663 ;; Hardware stack levels used: 1
  3664 ;; Hardware stack levels required when called: 7
  3665 ;; This function calls:
  3666 ;;		Nothing
  3667 ;; This function is called by:
  3668 ;;		_PIN_MANAGER_Initialize
  3669 ;;		_main
  3670 ;; This function uses a non-reentrant model
  3671 ;;
  3672                           
  3673                           
  3674                           ;psect for function _IOCAF5_SetInterruptHandler
  3675  01D5                     _IOCAF5_SetInterruptHandler:
  3676  01D5                     l1198:	
  3677                           ;incstack = 0
  3678                           ; Regs used in _IOCAF5_SetInterruptHandler: [wreg]
  3679                           
  3680                           
  3681                           ;mcc_generated_files/pin_manager.c: 157:     IOCAF5_InterruptHandler = InterruptHandler;
  3682  01D5  0140               	movlb	0	; select bank0
  3683  01D6  082B               	movf	IOCAF5_SetInterruptHandler@InterruptHandler+1,w
  3684  01D7  00B4               	movwf	_IOCAF5_InterruptHandler+1
  3685  01D8  082A               	movf	IOCAF5_SetInterruptHandler@InterruptHandler,w
  3686  01D9  00B3               	movwf	_IOCAF5_InterruptHandler
  3687  01DA                     l119:
  3688  01DA  0008               	return
  3689  01DB                     __end_of_IOCAF5_SetInterruptHandler:
  3690                           
  3691                           	psect	text7
  3692  01BD                     __ptext7:	
  3693 ;; *************** function _OSCILLATOR_Initialize *****************
  3694 ;; Defined at:
  3695 ;;		line 57 in file "mcc_generated_files/mcc.c"
  3696 ;; Parameters:    Size  Location     Type
  3697 ;;		None
  3698 ;; Auto vars:     Size  Location     Type
  3699 ;;		None
  3700 ;; Return value:  Size  Location     Type
  3701 ;;                  1    wreg      void 
  3702 ;; Registers used:
  3703 ;;		wreg, status,2
  3704 ;; Tracked objects:
  3705 ;;		On entry : 0/0
  3706 ;;		On exit  : 0/0
  3707 ;;		Unchanged: 0/0
  3708 ;; Data sizes:     COMMON   BANK0   BANK1   BANK2   BANK3   BANK4   BANK5   BANK6   BANK7   BANK8   BANK9  BANK10  BANK1
      +1  BANK12  BANK13  BANK14  BANK15  BANK16  BANK17  BANK18  BANK19  BANK20  BANK21  BANK22  BANK23  BANK24  BANK25
  3709 ;;      Params:         0       0       0       0       0       0       0       0       0       0       0       0       
      +0       0       0       0       0       0       0       0       0       0       0       0       0       0       0
  3710 ;;      Locals:         0       0       0       0       0       0       0       0       0       0       0       0       
      +0       0       0       0       0       0       0       0       0       0       0       0       0       0       0
  3711 ;;      Temps:          0       0       0       0       0       0       0       0       0       0       0       0       
      +0       0       0       0       0       0       0       0       0       0       0       0       0       0       0
  3712 ;;      Totals:         0       0       0       0       0       0       0       0       0       0       0       0       
      +0       0       0       0       0       0       0       0       0       0       0       0       0       0       0
  3713 ;;Total ram usage:        0 bytes
  3714 ;; Hardware stack levels used: 1
  3715 ;; Hardware stack levels required when called: 7
  3716 ;; This function calls:
  3717 ;;		Nothing
  3718 ;; This function is called by:
  3719 ;;		_SYSTEM_Initialize
  3720 ;; This function uses a non-reentrant model
  3721 ;;
  3722                           
  3723                           
  3724                           ;psect for function _OSCILLATOR_Initialize
  3725  01BD                     _OSCILLATOR_Initialize:
  3726  01BD                     l1270:	
  3727                           ;incstack = 0
  3728                           ; Regs used in _OSCILLATOR_Initialize: [wreg+status,2]
  3729                           
  3730                           
  3731                           ;mcc_generated_files/mcc.c: 60:     OSCCON1 = 0x62;
  3732  01BD  3062               	movlw	98
  3733  01BE  0151               	movlb	17	; select bank17
  3734  01BF  008D               	movwf	13	;volatile
  3735  01C0                     l1272:
  3736                           
  3737                           ;mcc_generated_files/mcc.c: 62:     OSCCON3 = 0x00;
  3738  01C0  018F               	clrf	15	;volatile
  3739  01C1                     l1274:
  3740                           
  3741                           ;mcc_generated_files/mcc.c: 64:     OSCEN = 0x00;
  3742  01C1  0191               	clrf	17	;volatile
  3743                           
  3744                           ;mcc_generated_files/mcc.c: 66:     OSCFRQ = 0x02;
  3745  01C2  3002               	movlw	2
  3746  01C3  0093               	movwf	19	;volatile
  3747  01C4                     l1276:
  3748                           
  3749                           ;mcc_generated_files/mcc.c: 68:     OSCTUNE = 0x00;
  3750  01C4  0192               	clrf	18	;volatile
  3751  01C5                     l173:
  3752  01C5  0008               	return
  3753  01C6                     __end_of_OSCILLATOR_Initialize:
  3754                           
  3755                           	psect	intentry
  3756  0004                     __pintentry:	
  3757 ;; *************** function _INTERRUPT_InterruptManager *****************
  3758 ;; Defined at:
  3759 ;;		line 52 in file "mcc_generated_files/interrupt_manager.c"
  3760 ;; Parameters:    Size  Location     Type
  3761 ;;		None
  3762 ;; Auto vars:     Size  Location     Type
  3763 ;;		None
  3764 ;; Return value:  Size  Location     Type
  3765 ;;                  1    wreg      void 
  3766 ;; Registers used:
  3767 ;;		wreg, fsr1l, fsr1h, status,2, status,0, pclath, cstack
  3768 ;; Tracked objects:
  3769 ;;		On entry : 0/0
  3770 ;;		On exit  : 0/0
  3771 ;;		Unchanged: 0/0
  3772 ;; Data sizes:     COMMON   BANK0   BANK1   BANK2   BANK3   BANK4   BANK5   BANK6   BANK7   BANK8   BANK9  BANK10  BANK1
      +1  BANK12  BANK13  BANK14  BANK15  BANK16  BANK17  BANK18  BANK19  BANK20  BANK21  BANK22  BANK23  BANK24  BANK25
  3773 ;;      Params:         0       0       0       0       0       0       0       0       0       0       0       0       
      +0       0       0       0       0       0       0       0       0       0       0       0       0       0       0
  3774 ;;      Locals:         0       0       0       0       0       0       0       0       0       0       0       0       
      +0       0       0       0       0       0       0       0       0       0       0       0       0       0       0
  3775 ;;      Temps:          0       0       0       0       0       0       0       0       0       0       0       0       
      +0       0       0       0       0       0       0       0       0       0       0       0       0       0       0
  3776 ;;      Totals:         0       0       0       0       0       0       0       0       0       0       0       0       
      +0       0       0       0       0       0       0       0       0       0       0       0       0       0       0
  3777 ;;Total ram usage:        0 bytes
  3778 ;; Hardware stack levels used: 1
  3779 ;; Hardware stack levels required when called: 6
  3780 ;; This function calls:
  3781 ;;		_PIN_MANAGER_IOC
  3782 ;; This function is called by:
  3783 ;;		Interrupt level 1
  3784 ;; This function uses a non-reentrant model
  3785 ;;
  3786                           
  3787  0004                     _INTERRUPT_InterruptManager:
  3788                           
  3789                           ;incstack = 0
  3790  0004  147E               	bsf	int$flags,0	;set compiler interrupt flag (level 1)
  3791                           
  3792                           ; Regs used in _INTERRUPT_InterruptManager: [wreg+fsr1l+fsr1h+status,2+status,0+pclath+c
      +                          stack]
  3793  0005  3180               	pagesel	$
  3794  0006                     i1l1292:
  3795                           
  3796                           ;mcc_generated_files/interrupt_manager.c: 55:     if(PIE0bits.IOCIE == 1 && PIR0bits.IOC
      +                          IF == 1)
  3797  0006  014E               	movlb	14	; select bank14
  3798  0007  1E16               	btfss	22,4	;volatile
  3799  0008  280A               	goto	u18_21
  3800  0009  280B               	goto	u18_20
  3801  000A                     u18_21:
  3802  000A  2812               	goto	i1l135
  3803  000B                     u18_20:
  3804  000B                     i1l1294:
  3805  000B  1E0C               	btfss	12,4	;volatile
  3806  000C  280E               	goto	u19_21
  3807  000D  280F               	goto	u19_20
  3808  000E                     u19_21:
  3809  000E  2812               	goto	i1l135
  3810  000F                     u19_20:
  3811  000F                     i1l1296:
  3812                           
  3813                           ;mcc_generated_files/interrupt_manager.c: 56:     {;mcc_generated_files/interrupt_manage
      +                          r.c: 57:         PIN_MANAGER_IOC();
  3814  000F  3181  21C6  3180   	fcall	_PIN_MANAGER_IOC
  3815  0012                     i1l135:	
  3816                           ;mcc_generated_files/interrupt_manager.c: 58:     }
  3817                           
  3818  0012  107E               	bcf	int$flags,0	;clear compiler interrupt flag (level 1)
  3819  0013  0009               	retfie
  3820  0014                     __end_of_INTERRUPT_InterruptManager:
  3821                           
  3822                           	psect	text9
  3823  01C6                     __ptext9:	
  3824 ;; *************** function _PIN_MANAGER_IOC *****************
  3825 ;; Defined at:
  3826 ;;		line 129 in file "mcc_generated_files/pin_manager.c"
  3827 ;; Parameters:    Size  Location     Type
  3828 ;;		None
  3829 ;; Auto vars:     Size  Location     Type
  3830 ;;		None
  3831 ;; Return value:  Size  Location     Type
  3832 ;;                  1    wreg      void 
  3833 ;; Registers used:
  3834 ;;		wreg, fsr1l, fsr1h, status,2, status,0, pclath, cstack
  3835 ;; Tracked objects:
  3836 ;;		On entry : 0/0
  3837 ;;		On exit  : 0/0
  3838 ;;		Unchanged: 0/0
  3839 ;; Data sizes:     COMMON   BANK0   BANK1   BANK2   BANK3   BANK4   BANK5   BANK6   BANK7   BANK8   BANK9  BANK10  BANK1
      +1  BANK12  BANK13  BANK14  BANK15  BANK16  BANK17  BANK18  BANK19  BANK20  BANK21  BANK22  BANK23  BANK24  BANK25
  3840 ;;      Params:         0       0       0       0       0       0       0       0       0       0       0       0       
      +0       0       0       0       0       0       0       0       0       0       0       0       0       0       0
  3841 ;;      Locals:         0       0       0       0       0       0       0       0       0       0       0       0       
      +0       0       0       0       0       0       0       0       0       0       0       0       0       0       0
  3842 ;;      Temps:          0       0       0       0       0       0       0       0       0       0       0       0       
      +0       0       0       0       0       0       0       0       0       0       0       0       0       0       0
  3843 ;;      Totals:         0       0       0       0       0       0       0       0       0       0       0       0       
      +0       0       0       0       0       0       0       0       0       0       0       0       0       0       0
  3844 ;;Total ram usage:        0 bytes
  3845 ;; Hardware stack levels used: 1
  3846 ;; Hardware stack levels required when called: 5
  3847 ;; This function calls:
  3848 ;;		_IOCAF5_ISR
  3849 ;; This function is called by:
  3850 ;;		_INTERRUPT_InterruptManager
  3851 ;; This function uses a non-reentrant model
  3852 ;;
  3853                           
  3854                           
  3855                           ;psect for function _PIN_MANAGER_IOC
  3856  01C6                     _PIN_MANAGER_IOC:
  3857  01C6                     i1l1278:	
  3858                           ;incstack = 0
  3859                           ; Regs used in _PIN_MANAGER_IOC: [wreg+fsr1l+fsr1h+status,2+status,0+pclath+cstack]
  3860                           
  3861                           
  3862                           ;mcc_generated_files/pin_manager.c: 132:     if(IOCAFbits.IOCAF5 == 1)
  3863  01C6  017E               	movlb	62	; select bank62
  3864  01C7  1EBF               	btfss	63,5	;volatile
  3865  01C8  29CA               	goto	u16_21
  3866  01C9  29CB               	goto	u16_20
  3867  01CA                     u16_21:
  3868  01CA  29CE               	goto	i1l112
  3869  01CB                     u16_20:
  3870  01CB                     i1l1280:
  3871                           
  3872                           ;mcc_generated_files/pin_manager.c: 133:     {;mcc_generated_files/pin_manager.c: 134:  
      +                                 IOCAF5_ISR();
  3873  01CB  3181  219A  3181   	fcall	_IOCAF5_ISR
  3874  01CE                     i1l112:
  3875  01CE  0008               	return
  3876  01CF                     __end_of_PIN_MANAGER_IOC:
  3877                           
  3878                           	psect	text10
  3879  019A                     __ptext10:	
  3880 ;; *************** function _IOCAF5_ISR *****************
  3881 ;; Defined at:
  3882 ;;		line 141 in file "mcc_generated_files/pin_manager.c"
  3883 ;; Parameters:    Size  Location     Type
  3884 ;;		None
  3885 ;; Auto vars:     Size  Location     Type
  3886 ;;		None
  3887 ;; Return value:  Size  Location     Type
  3888 ;;                  1    wreg      void 
  3889 ;; Registers used:
  3890 ;;		wreg, fsr1l, fsr1h, status,2, status,0, pclath, cstack
  3891 ;; Tracked objects:
  3892 ;;		On entry : 0/0
  3893 ;;		On exit  : 0/0
  3894 ;;		Unchanged: 0/0
  3895 ;; Data sizes:     COMMON   BANK0   BANK1   BANK2   BANK3   BANK4   BANK5   BANK6   BANK7   BANK8   BANK9  BANK10  BANK1
      +1  BANK12  BANK13  BANK14  BANK15  BANK16  BANK17  BANK18  BANK19  BANK20  BANK21  BANK22  BANK23  BANK24  BANK25
  3896 ;;      Params:         0       0       0       0       0       0       0       0       0       0       0       0       
      +0       0       0       0       0       0       0       0       0       0       0       0       0       0       0
  3897 ;;      Locals:         0       0       0       0       0       0       0       0       0       0       0       0       
      +0       0       0       0       0       0       0       0       0       0       0       0       0       0       0
  3898 ;;      Temps:          0       0       0       0       0       0       0       0       0       0       0       0       
      +0       0       0       0       0       0       0       0       0       0       0       0       0       0       0
  3899 ;;      Totals:         0       0       0       0       0       0       0       0       0       0       0       0       
      +0       0       0       0       0       0       0       0       0       0       0       0       0       0       0
  3900 ;;Total ram usage:        0 bytes
  3901 ;; Hardware stack levels used: 1
  3902 ;; Hardware stack levels required when called: 4
  3903 ;; This function calls:
  3904 ;;		Absolute function
  3905 ;;		_IOCAF5_DefaultInterruptHandler
  3906 ;;		_changeflash
  3907 ;; This function is called by:
  3908 ;;		_PIN_MANAGER_IOC
  3909 ;; This function uses a non-reentrant model
  3910 ;;
  3911                           
  3912                           
  3913                           ;psect for function _IOCAF5_ISR
  3914  019A                     _IOCAF5_ISR:
  3915  019A                     i1l1262:	
  3916                           ;incstack = 0
  3917                           ; Regs used in _IOCAF5_ISR: [wreg+fsr1l+fsr1h+status,2+status,0+pclath+cstack]
  3918                           
  3919                           
  3920                           ;mcc_generated_files/pin_manager.c: 146:     if(IOCAF5_InterruptHandler)
  3921  019A  0140               	movlb	0	; select bank0
  3922  019B  0833               	movf	_IOCAF5_InterruptHandler,w
  3923  019C  0434               	iorwf	_IOCAF5_InterruptHandler+1,w
  3924  019D  1903               	btfsc	3,2
  3925  019E  29A0               	goto	u15_21
  3926  019F  29A1               	goto	u15_20
  3927  01A0                     u15_21:
  3928  01A0  29A6               	goto	i1l1266
  3929  01A1                     u15_20:
  3930  01A1                     i1l1264:
  3931                           
  3932                           ;mcc_generated_files/pin_manager.c: 147:     {;mcc_generated_files/pin_manager.c: 148:  
      +                                 IOCAF5_InterruptHandler();
  3933  01A1  0834               	movf	_IOCAF5_InterruptHandler+1,w
  3934  01A2  008A               	movwf	10
  3935  01A3  0833               	movf	_IOCAF5_InterruptHandler,w
  3936  01A4  000A               	callw
  3937  01A5  3181               	pagesel	$
  3938  01A6                     i1l1266:
  3939                           
  3940                           ;mcc_generated_files/pin_manager.c: 150:     IOCAFbits.IOCAF5 = 0;
  3941  01A6  017E               	movlb	62	; select bank62
  3942  01A7  12BF               	bcf	63,5	;volatile
  3943  01A8                     i1l116:
  3944  01A8  0008               	return
  3945  01A9                     __end_of_IOCAF5_ISR:
  3946                           
  3947                           	psect	text11
  3948  01DF                     __ptext11:	
  3949 ;; *************** function _IOCAF5_DefaultInterruptHandler *****************
  3950 ;; Defined at:
  3951 ;;		line 163 in file "mcc_generated_files/pin_manager.c"
  3952 ;; Parameters:    Size  Location     Type
  3953 ;;		None
  3954 ;; Auto vars:     Size  Location     Type
  3955 ;;		None
  3956 ;; Return value:  Size  Location     Type
  3957 ;;                  1    wreg      void 
  3958 ;; Registers used:
  3959 ;;		None
  3960 ;; Tracked objects:
  3961 ;;		On entry : 0/0
  3962 ;;		On exit  : 0/0
  3963 ;;		Unchanged: 0/0
  3964 ;; Data sizes:     COMMON   BANK0   BANK1   BANK2   BANK3   BANK4   BANK5   BANK6   BANK7   BANK8   BANK9  BANK10  BANK1
      +1  BANK12  BANK13  BANK14  BANK15  BANK16  BANK17  BANK18  BANK19  BANK20  BANK21  BANK22  BANK23  BANK24  BANK25
  3965 ;;      Params:         0       0       0       0       0       0       0       0       0       0       0       0       
      +0       0       0       0       0       0       0       0       0       0       0       0       0       0       0
  3966 ;;      Locals:         0       0       0       0       0       0       0       0       0       0       0       0       
      +0       0       0       0       0       0       0       0       0       0       0       0       0       0       0
  3967 ;;      Temps:          0       0       0       0       0       0       0       0       0       0       0       0       
      +0       0       0       0       0       0       0       0       0       0       0       0       0       0       0
  3968 ;;      Totals:         0       0       0       0       0       0       0       0       0       0       0       0       
      +0       0       0       0       0       0       0       0       0       0       0       0       0       0       0
  3969 ;;Total ram usage:        0 bytes
  3970 ;; Hardware stack levels used: 1
  3971 ;; This function calls:
  3972 ;;		Nothing
  3973 ;; This function is called by:
  3974 ;;		_PIN_MANAGER_Initialize
  3975 ;;		_IOCAF5_ISR
  3976 ;; This function uses a non-reentrant model
  3977 ;;
  3978                           
  3979                           
  3980                           ;psect for function _IOCAF5_DefaultInterruptHandler
  3981  01DF                     _IOCAF5_DefaultInterruptHandler:
  3982  01DF                     i1l122:	
  3983                           ;incstack = 0
  3984                           ; Regs used in _IOCAF5_DefaultInterruptHandler: []
  3985                           
  3986  01DF  0008               	return
  3987  01E0                     __end_of_IOCAF5_DefaultInterruptHandler:
  3988                           
  3989                           	psect	text12
  3990  0171                     __ptext12:	
  3991 ;; *************** function _changeflash *****************
  3992 ;; Defined at:
  3993 ;;		line 48 in file "main.c"
  3994 ;; Parameters:    Size  Location     Type
  3995 ;;		None
  3996 ;; Auto vars:     Size  Location     Type
  3997 ;;		None
  3998 ;; Return value:  Size  Location     Type
  3999 ;;                  1    wreg      void 
  4000 ;; Registers used:
  4001 ;;		wreg, fsr1l, fsr1h, status,2, status,0, pclath, cstack
  4002 ;; Tracked objects:
  4003 ;;		On entry : 0/0
  4004 ;;		On exit  : 0/0
  4005 ;;		Unchanged: 0/0
  4006 ;; Data sizes:     COMMON   BANK0   BANK1   BANK2   BANK3   BANK4   BANK5   BANK6   BANK7   BANK8   BANK9  BANK10  BANK1
      +1  BANK12  BANK13  BANK14  BANK15  BANK16  BANK17  BANK18  BANK19  BANK20  BANK21  BANK22  BANK23  BANK24  BANK25
  4007 ;;      Params:         0       0       0       0       0       0       0       0       0       0       0       0       
      +0       0       0       0       0       0       0       0       0       0       0       0       0       0       0
  4008 ;;      Locals:         0       0       0       0       0       0       0       0       0       0       0       0       
      +0       0       0       0       0       0       0       0       0       0       0       0       0       0       0
  4009 ;;      Temps:          0       1       0       0       0       0       0       0       0       0       0       0       
      +0       0       0       0       0       0       0       0       0       0       0       0       0       0       0
  4010 ;;      Totals:         0       1       0       0       0       0       0       0       0       0       0       0       
      +0       0       0       0       0       0       0       0       0       0       0       0       0       0       0
  4011 ;;Total ram usage:        1 bytes
  4012 ;; Hardware stack levels used: 1
  4013 ;; Hardware stack levels required when called: 3
  4014 ;; This function calls:
  4015 ;;		_FLASH_WriteWord
  4016 ;; This function is called by:
  4017 ;;		_main
  4018 ;;		_IOCAF5_ISR
  4019 ;; This function uses a non-reentrant model
  4020 ;;
  4021                           
  4022                           
  4023                           ;psect for function _changeflash
  4024  0171                     _changeflash:
  4025  0171                     i1l1200:	
  4026                           ;incstack = 0
  4027                           ; Regs used in _changeflash: [wreg+fsr1l+fsr1h+status,2+status,0+pclath+cstack]
  4028                           
  4029                           
  4030                           ;main.c: 50:     FLASH_WriteWord(flashAddr, buffer, i);
  4031  0171  0140               	movlb	0	; select bank0
  4032  0172  0830               	movf	_flashAddr+1,w
  4033  0173  00A1               	movwf	FLASH_WriteWord@flashAddr+1
  4034  0174  082F               	movf	_flashAddr,w
  4035  0175  00A0               	movwf	FLASH_WriteWord@flashAddr
  4036  0176  30A0               	movlw	(low (_buffer| 0))& (0+255)
  4037  0177  00A9               	movwf	??_changeflash
  4038  0178  0829               	movf	??_changeflash,w
  4039  0179  00A2               	movwf	FLASH_WriteWord@ramBuf
  4040  017A  0832               	movf	_i+1,w
  4041  017B  00A4               	movwf	FLASH_WriteWord@word+1
  4042  017C  0831               	movf	_i,w
  4043  017D  00A3               	movwf	FLASH_WriteWord@word
  4044  017E  3180  2093  3181   	fcall	_FLASH_WriteWord
  4045  0181                     i1l1202:
  4046                           
  4047                           ;main.c: 51:     i += 1;
  4048  0181  3001               	movlw	1
  4049  0182  0140               	movlb	0	; select bank0
  4050  0183  07B1               	addwf	_i,f
  4051  0184  3000               	movlw	0
  4052  0185  3DB2               	addwfc	_i+1,f
  4053  0186                     i1l197:
  4054  0186  0008               	return
  4055  0187                     __end_of_changeflash:
  4056                           
  4057                           	psect	text13
  4058  0093                     __ptext13:	
  4059 ;; *************** function _FLASH_WriteWord *****************
  4060 ;; Defined at:
  4061 ;;		line 75 in file "mcc_generated_files/memory.c"
  4062 ;; Parameters:    Size  Location     Type
  4063 ;;  flashAddr       2    0[BANK0 ] unsigned short 
  4064 ;;  ramBuf          1    2[BANK0 ] PTR unsigned short 
  4065 ;;		 -> buffer(64), 
  4066 ;;  word            2    3[BANK0 ] unsigned short 
  4067 ;; Auto vars:     Size  Location     Type
  4068 ;;  blockStartAd    2    6[BANK0 ] unsigned short 
  4069 ;;  i               1    8[BANK0 ] unsigned char 
  4070 ;;  offset          1    5[BANK0 ] unsigned char 
  4071 ;; Return value:  Size  Location     Type
  4072 ;;                  1    wreg      void 
  4073 ;; Registers used:
  4074 ;;		wreg, fsr1l, fsr1h, status,2, status,0, pclath, cstack
  4075 ;; Tracked objects:
  4076 ;;		On entry : 0/0
  4077 ;;		On exit  : 0/0
  4078 ;;		Unchanged: 0/0
  4079 ;; Data sizes:     COMMON   BANK0   BANK1   BANK2   BANK3   BANK4   BANK5   BANK6   BANK7   BANK8   BANK9  BANK10  BANK1
      +1  BANK12  BANK13  BANK14  BANK15  BANK16  BANK17  BANK18  BANK19  BANK20  BANK21  BANK22  BANK23  BANK24  BANK25
  4080 ;;      Params:         0       5       0       0       0       0       0       0       0       0       0       0       
      +0       0       0       0       0       0       0       0       0       0       0       0       0       0       0
  4081 ;;      Locals:         0       4       0       0       0       0       0       0       0       0       0       0       
      +0       0       0       0       0       0       0       0       0       0       0       0       0       0       0
  4082 ;;      Temps:          1       0       0       0       0       0       0       0       0       0       0       0       
      +0       0       0       0       0       0       0       0       0       0       0       0       0       0       0
  4083 ;;      Totals:         1       9       0       0       0       0       0       0       0       0       0       0       
      +0       0       0       0       0       0       0       0       0       0       0       0       0       0       0
  4084 ;;Total ram usage:       10 bytes
  4085 ;; Hardware stack levels used: 1
  4086 ;; Hardware stack levels required when called: 2
  4087 ;; This function calls:
  4088 ;;		_FLASH_WriteBlock
  4089 ;;		i1_FLASH_ReadWord
  4090 ;; This function is called by:
  4091 ;;		_changeflash
  4092 ;; This function uses a non-reentrant model
  4093 ;;
  4094                           
  4095                           
  4096                           ;psect for function _FLASH_WriteWord
  4097  0093                     _FLASH_WriteWord:
  4098  0093                     i1l1180:	
  4099                           ;incstack = 0
  4100                           ; Regs used in _FLASH_WriteWord: [wreg+fsr1l+fsr1h+status,2+status,0+pclath+cstack]
  4101                           
  4102                           
  4103                           ;mcc_generated_files/memory.c: 75: void FLASH_WriteWord(uint16_t flashAddr, uint16_t *ra
      +                          mBuf, uint16_t word);mcc_generated_files/memory.c: 76: {;mcc_generated_files/memory.c: 7
      +                          7:     uint16_t blockStartAddr = (uint16_t)(flashAddr & ((0x4000 -1) ^ (32 -1)));
  4104  0093  30E0               	movlw	224
  4105  0094  0140               	movlb	0	; select bank0
  4106  0095  0520               	andwf	FLASH_WriteWord@flashAddr,w
  4107  0096  00A6               	movwf	FLASH_WriteWord@blockStartAddr
  4108  0097  303F               	movlw	63
  4109  0098  0521               	andwf	FLASH_WriteWord@flashAddr+1,w
  4110  0099  00A7               	movwf	FLASH_WriteWord@blockStartAddr+1
  4111  009A                     i1l1182:
  4112                           
  4113                           ;mcc_generated_files/memory.c: 78:     uint8_t offset = (uint8_t)(flashAddr & (32 -1));
  4114  009A  0820               	movf	FLASH_WriteWord@flashAddr,w
  4115  009B  391F               	andlw	31
  4116  009C  00FD               	movwf	??_FLASH_WriteWord
  4117  009D  087D               	movf	??_FLASH_WriteWord,w
  4118  009E  00A5               	movwf	FLASH_WriteWord@offset
  4119                           
  4120                           ;mcc_generated_files/memory.c: 79:     uint8_t i;;mcc_generated_files/memory.c: 82:     
      +                          for (i=0; i<32; i++)
  4121  009F  01A8               	clrf	FLASH_WriteWord@i
  4122  00A0                     i1l1188:
  4123                           
  4124                           ;mcc_generated_files/memory.c: 83:     {;mcc_generated_files/memory.c: 84:         ramBu
      +                          f[i] = FLASH_ReadWord((blockStartAddr+i));
  4125  00A0  0828               	movf	FLASH_WriteWord@i,w
  4126  00A1  0726               	addwf	FLASH_WriteWord@blockStartAddr,w
  4127  00A2  00F0               	movwf	i1FLASH_ReadWord@flashAddr
  4128  00A3  0827               	movf	FLASH_WriteWord@blockStartAddr+1,w
  4129  00A4  1803               	skipnc
  4130  00A5  0A27               	incf	FLASH_WriteWord@blockStartAddr+1,w
  4131  00A6  00F1               	movwf	i1FLASH_ReadWord@flashAddr+1
  4132  00A7  3181  2142  3180   	fcall	i1_FLASH_ReadWord
  4133  00AA  0140               	movlb	0	; select bank0
  4134  00AB  3528               	lslf	FLASH_WriteWord@i,w
  4135  00AC  0722               	addwf	FLASH_WriteWord@ramBuf,w
  4136  00AD  00FD               	movwf	??_FLASH_WriteWord
  4137  00AE  087D               	movf	??_FLASH_WriteWord,w
  4138  00AF  0086               	movwf	6
  4139  00B0  0187               	clrf	7
  4140  00B1  0870               	movf	?i1_FLASH_ReadWord,w
  4141  00B2  3FC0               	movwi [0]fsr1
  4142  00B3  0871               	movf	?i1_FLASH_ReadWord+1,w
  4143  00B4  3FC1               	movwi [1]fsr1
  4144  00B5                     i1l1190:
  4145                           
  4146                           ;mcc_generated_files/memory.c: 85:     }
  4147  00B5  3001               	movlw	1
  4148  00B6  00FD               	movwf	??_FLASH_WriteWord
  4149  00B7  087D               	movf	??_FLASH_WriteWord,w
  4150  00B8  07A8               	addwf	FLASH_WriteWord@i,f
  4151  00B9                     i1l1192:
  4152  00B9  3020               	movlw	32
  4153  00BA  0228               	subwf	FLASH_WriteWord@i,w
  4154  00BB  1C03               	skipc
  4155  00BC  28BE               	goto	u14_21
  4156  00BD  28BF               	goto	u14_20
  4157  00BE                     u14_21:
  4158  00BE  28A0               	goto	i1l1188
  4159  00BF                     u14_20:
  4160  00BF                     i1l1194:
  4161                           
  4162                           ;mcc_generated_files/memory.c: 88:     ramBuf[offset] = word;
  4163  00BF  3525               	lslf	FLASH_WriteWord@offset,w
  4164  00C0  0722               	addwf	FLASH_WriteWord@ramBuf,w
  4165  00C1  00FD               	movwf	??_FLASH_WriteWord
  4166  00C2  087D               	movf	??_FLASH_WriteWord,w
  4167  00C3  0086               	movwf	6
  4168  00C4  0187               	clrf	7
  4169  00C5  0823               	movf	FLASH_WriteWord@word,w
  4170  00C6  3FC0               	movwi [0]fsr1
  4171  00C7  0824               	movf	FLASH_WriteWord@word+1,w
  4172  00C8  3FC1               	movwi [1]fsr1
  4173  00C9                     i1l1196:
  4174                           
  4175                           ;mcc_generated_files/memory.c: 91:     FLASH_WriteBlock(blockStartAddr, ramBuf);
  4176  00C9  0827               	movf	FLASH_WriteWord@blockStartAddr+1,w
  4177  00CA  00F4               	movwf	FLASH_WriteBlock@writeAddr+1
  4178  00CB  0826               	movf	FLASH_WriteWord@blockStartAddr,w
  4179  00CC  00F3               	movwf	FLASH_WriteBlock@writeAddr
  4180  00CD  0822               	movf	FLASH_WriteWord@ramBuf,w
  4181  00CE  00FD               	movwf	??_FLASH_WriteWord
  4182  00CF  087D               	movf	??_FLASH_WriteWord,w
  4183  00D0  00F5               	movwf	FLASH_WriteBlock@flashWordArray
  4184  00D1  3180  2034  3180   	fcall	_FLASH_WriteBlock
  4185  00D4                     i1l28:
  4186  00D4  0008               	return
  4187  00D5                     __end_of_FLASH_WriteWord:
  4188                           
  4189                           	psect	text14
  4190  0142                     __ptext14:	
  4191 ;; *************** function i1_FLASH_ReadWord *****************
  4192 ;; Defined at:
  4193 ;;		line 58 in file "mcc_generated_files/memory.c"
  4194 ;; Parameters:    Size  Location     Type
  4195 ;;  flashAddr       2    0[COMMON] unsigned short 
  4196 ;; Auto vars:     Size  Location     Type
  4197 ;;  GIEBitValue     1    2[COMMON] unsigned char 
  4198 ;; Return value:  Size  Location     Type
  4199 ;;                  2    0[COMMON] unsigned short 
  4200 ;; Registers used:
  4201 ;;		wreg, status,2, status,0
  4202 ;; Tracked objects:
  4203 ;;		On entry : 0/0
  4204 ;;		On exit  : 0/0
  4205 ;;		Unchanged: 0/0
  4206 ;; Data sizes:     COMMON   BANK0   BANK1   BANK2   BANK3   BANK4   BANK5   BANK6   BANK7   BANK8   BANK9  BANK10  BANK1
      +1  BANK12  BANK13  BANK14  BANK15  BANK16  BANK17  BANK18  BANK19  BANK20  BANK21  BANK22  BANK23  BANK24  BANK25
  4207 ;;      Params:         2       0       0       0       0       0       0       0       0       0       0       0       
      +0       0       0       0       0       0       0       0       0       0       0       0       0       0       0
  4208 ;;      Locals:         1       0       0       0       0       0       0       0       0       0       0       0       
      +0       0       0       0       0       0       0       0       0       0       0       0       0       0       0
  4209 ;;      Temps:          0       0       0       0       0       0       0       0       0       0       0       0       
      +0       0       0       0       0       0       0       0       0       0       0       0       0       0       0
  4210 ;;      Totals:         3       0       0       0       0       0       0       0       0       0       0       0       
      +0       0       0       0       0       0       0       0       0       0       0       0       0       0       0
  4211 ;;Total ram usage:        3 bytes
  4212 ;; Hardware stack levels used: 1
  4213 ;; This function calls:
  4214 ;;		Nothing
  4215 ;; This function is called by:
  4216 ;;		_FLASH_WriteWord
  4217 ;; This function uses a non-reentrant model
  4218 ;;
  4219                           
  4220                           
  4221                           ;psect for function i1_FLASH_ReadWord
  4222  0142                     i1_FLASH_ReadWord:
  4223  0142                     i1l1158:	
  4224                           ;incstack = 0
  4225                           ; Regs used in i1_FLASH_ReadWord: [wreg+status,2+status,0]
  4226                           
  4227                           
  4228                           ;mcc_generated_files/memory.c: 58: uint16_t FLASH_ReadWord(uint16_t flashAddr);mcc_gener
      +                          ated_files/memory.c: 59: {;mcc_generated_files/memory.c: 60:     uint8_t GIEBitValue = I
      +                          NTCONbits.GIE;
  4229  0142  3000               	movlw	0
  4230  0143  1B8B               	btfsc	11,7	;volatile
  4231  0144  3001               	movlw	1
  4232  0145  00F2               	movwf	i1FLASH_ReadWord@GIEBitValue
  4233  0146                     i1l1160:
  4234                           
  4235                           ;mcc_generated_files/memory.c: 62:     INTCONbits.GIE = 0;
  4236  0146  138B               	bcf	11,7	;volatile
  4237  0147                     i1l1162:
  4238                           
  4239                           ;mcc_generated_files/memory.c: 63:     NVMADRL = (flashAddr & 0x00FF);
  4240  0147  0870               	movf	i1FLASH_ReadWord@flashAddr,w
  4241  0148  0150               	movlb	16	; select bank16
  4242  0149  009A               	movwf	26	;volatile
  4243  014A                     i1l1164:
  4244                           
  4245                           ;mcc_generated_files/memory.c: 64:     NVMADRH = ((flashAddr & 0xFF00) >> 8);
  4246  014A  0871               	movf	i1FLASH_ReadWord@flashAddr+1,w
  4247  014B  009B               	movwf	27	;volatile
  4248  014C                     i1l1166:
  4249                           
  4250                           ;mcc_generated_files/memory.c: 66:     NVMCON1bits.NVMREGS = 0;
  4251  014C  131E               	bcf	30,6	;volsfr
  4252  014D                     i1l1168:
  4253                           
  4254                           ;mcc_generated_files/memory.c: 67:     NVMCON1bits.RD = 1;
  4255  014D  141E               	bsf	30,0	;volsfr
  4256  014E                     i1l1170:
  4257                           
  4258                           ;mcc_generated_files/memory.c: 68:     __nop();
  4259  014E  0000               	nop
  4260  014F                     i1l1172:
  4261                           
  4262                           ;mcc_generated_files/memory.c: 69:     __nop();
  4263  014F  0000               	nop
  4264  0150                     i1l1174:
  4265                           
  4266                           ;mcc_generated_files/memory.c: 70:     INTCONbits.GIE = GIEBitValue;
  4267  0150  0C72               	rrf	i1FLASH_ReadWord@GIEBitValue,w
  4268  0151  1C03               	skipc
  4269  0152  138B               	bcf	11,7	;volatile
  4270  0153  1803               	skipnc
  4271  0154  178B               	bsf	11,7	;volatile
  4272  0155                     i1l1176:
  4273                           
  4274                           ;mcc_generated_files/memory.c: 72:     return ((uint16_t)((NVMDATH << 8) | NVMDATL));
  4275  0155  0150               	movlb	16	; select bank16
  4276  0156  081D               	movf	29,w	;volatile
  4277  0157  00F1               	movwf	?i1_FLASH_ReadWord+1
  4278  0158  081C               	movf	28,w	;volatile
  4279  0159  00F0               	movwf	?i1_FLASH_ReadWord
  4280  015A                     i1l23:
  4281  015A  0008               	return
  4282  015B                     __end_ofi1_FLASH_ReadWord:
  4283                           
  4284                           	psect	text15
  4285  0034                     __ptext15:	
  4286 ;; *************** function _FLASH_WriteBlock *****************
  4287 ;; Defined at:
  4288 ;;		line 94 in file "mcc_generated_files/memory.c"
  4289 ;; Parameters:    Size  Location     Type
  4290 ;;  writeAddr       2    3[COMMON] unsigned short 
  4291 ;;  flashWordArr    1    5[COMMON] PTR unsigned short 
  4292 ;;		 -> buffer(64), 
  4293 ;; Auto vars:     Size  Location     Type
  4294 ;;  blockStartAd    2    9[COMMON] unsigned short 
  4295 ;;  i               1   12[COMMON] unsigned char 
  4296 ;;  GIEBitValue     1   11[COMMON] unsigned char 
  4297 ;; Return value:  Size  Location     Type
  4298 ;;                  1    wreg      char 
  4299 ;; Registers used:
  4300 ;;		wreg, fsr1l, fsr1h, status,2, status,0, pclath, cstack
  4301 ;; Tracked objects:
  4302 ;;		On entry : 0/0
  4303 ;;		On exit  : 0/0
  4304 ;;		Unchanged: 0/0
  4305 ;; Data sizes:     COMMON   BANK0   BANK1   BANK2   BANK3   BANK4   BANK5   BANK6   BANK7   BANK8   BANK9  BANK10  BANK1
      +1  BANK12  BANK13  BANK14  BANK15  BANK16  BANK17  BANK18  BANK19  BANK20  BANK21  BANK22  BANK23  BANK24  BANK25
  4306 ;;      Params:         3       0       0       0       0       0       0       0       0       0       0       0       
      +0       0       0       0       0       0       0       0       0       0       0       0       0       0       0
  4307 ;;      Locals:         4       0       0       0       0       0       0       0       0       0       0       0       
      +0       0       0       0       0       0       0       0       0       0       0       0       0       0       0
  4308 ;;      Temps:          3       0       0       0       0       0       0       0       0       0       0       0       
      +0       0       0       0       0       0       0       0       0       0       0       0       0       0       0
  4309 ;;      Totals:        10       0       0       0       0       0       0       0       0       0       0       0       
      +0       0       0       0       0       0       0       0       0       0       0       0       0       0       0
  4310 ;;Total ram usage:       10 bytes
  4311 ;; Hardware stack levels used: 1
  4312 ;; Hardware stack levels required when called: 1
  4313 ;; This function calls:
  4314 ;;		_FLASH_EraseBlock
  4315 ;; This function is called by:
  4316 ;;		_FLASH_WriteWord
  4317 ;; This function uses a non-reentrant model
  4318 ;;
  4319                           
  4320                           
  4321                           ;psect for function _FLASH_WriteBlock
  4322  0034                     _FLASH_WriteBlock:
  4323  0034                     i1l1108:	
  4324                           ;incstack = 0
  4325                           ; Regs used in _FLASH_WriteBlock: [wreg+fsr1l+fsr1h+status,2+status,0+pclath+cstack]
  4326                           
  4327                           
  4328                           ;mcc_generated_files/memory.c: 94: int8_t FLASH_WriteBlock(uint16_t writeAddr, uint16_t 
      +                          *flashWordArray);mcc_generated_files/memory.c: 95: {;mcc_generated_files/memory.c: 96:  
      +                             uint16_t blockStartAddr = (uint16_t )(writeAddr & ((0x4000 -1) ^ (32 -1)));
  4329  0034  30E0               	movlw	224
  4330  0035  0573               	andwf	FLASH_WriteBlock@writeAddr,w
  4331  0036  00F9               	movwf	FLASH_WriteBlock@blockStartAddr
  4332  0037  303F               	movlw	63
  4333  0038  0574               	andwf	FLASH_WriteBlock@writeAddr+1,w
  4334  0039  00FA               	movwf	FLASH_WriteBlock@blockStartAddr+1
  4335  003A                     i1l1110:
  4336                           
  4337                           ;mcc_generated_files/memory.c: 97:     uint8_t GIEBitValue = INTCONbits.GIE;
  4338  003A  3000               	movlw	0
  4339  003B  1B8B               	btfsc	11,7	;volatile
  4340  003C  3001               	movlw	1
  4341  003D  00FB               	movwf	FLASH_WriteBlock@GIEBitValue
  4342  003E                     i1l1112:
  4343                           
  4344                           ;mcc_generated_files/memory.c: 98:     uint8_t i;;mcc_generated_files/memory.c: 102:    
      +                           if( writeAddr != blockStartAddr )
  4345  003E  087A               	movf	FLASH_WriteBlock@blockStartAddr+1,w
  4346  003F  0674               	xorwf	FLASH_WriteBlock@writeAddr+1,w
  4347  0040  1D03               	skipz
  4348  0041  2844               	goto	u11_25
  4349  0042  0879               	movf	FLASH_WriteBlock@blockStartAddr,w
  4350  0043  0673               	xorwf	FLASH_WriteBlock@writeAddr,w
  4351  0044                     u11_25:
  4352  0044  1903               	skipnz
  4353  0045  2847               	goto	u11_21
  4354  0046  2848               	goto	u11_20
  4355  0047                     u11_21:
  4356  0047  2849               	goto	i1l31
  4357  0048                     u11_20:
  4358  0048  2892               	goto	i1l32
  4359  0049                     i1l31:	
  4360                           ;mcc_generated_files/memory.c: 105:     }
  4361                           
  4362                           
  4363                           ;mcc_generated_files/memory.c: 107:     INTCONbits.GIE = 0;
  4364  0049  138B               	bcf	11,7	;volatile
  4365  004A                     i1l1116:
  4366                           
  4367                           ;mcc_generated_files/memory.c: 110:     FLASH_EraseBlock(writeAddr);
  4368  004A  0874               	movf	FLASH_WriteBlock@writeAddr+1,w
  4369  004B  00F1               	movwf	FLASH_EraseBlock@startAddr+1
  4370  004C  0873               	movf	FLASH_WriteBlock@writeAddr,w
  4371  004D  00F0               	movwf	FLASH_EraseBlock@startAddr
  4372  004E  3181  2126  3180   	fcall	_FLASH_EraseBlock
  4373  0051                     i1l1118:
  4374                           
  4375                           ;mcc_generated_files/memory.c: 113:     NVMCON1bits.NVMREGS = 0;
  4376  0051  0150               	movlb	16	; select bank16
  4377  0052  131E               	bcf	30,6	;volsfr
  4378  0053                     i1l1120:
  4379                           
  4380                           ;mcc_generated_files/memory.c: 114:     NVMCON1bits.WREN = 1;
  4381  0053  151E               	bsf	30,2	;volsfr
  4382  0054                     i1l1122:
  4383                           
  4384                           ;mcc_generated_files/memory.c: 115:     NVMCON1bits.LWLO = 1;
  4385  0054  169E               	bsf	30,5	;volsfr
  4386  0055                     i1l1124:
  4387                           
  4388                           ;mcc_generated_files/memory.c: 117:     for (i=0; i<32; i++)
  4389  0055  01FC               	clrf	FLASH_WriteBlock@i
  4390  0056                     i1l1130:
  4391                           
  4392                           ;mcc_generated_files/memory.c: 118:     {;mcc_generated_files/memory.c: 120:         NVM
      +                          ADRL = (writeAddr & 0xFF);
  4393  0056  0873               	movf	FLASH_WriteBlock@writeAddr,w
  4394  0057  0150               	movlb	16	; select bank16
  4395  0058  009A               	movwf	26	;volatile
  4396  0059                     i1l1132:
  4397                           
  4398                           ;mcc_generated_files/memory.c: 122:         NVMADRH = ((writeAddr & 0xFF00) >> 8);
  4399  0059  0874               	movf	FLASH_WriteBlock@writeAddr+1,w
  4400  005A  009B               	movwf	27	;volatile
  4401  005B                     i1l1134:
  4402                           
  4403                           ;mcc_generated_files/memory.c: 125:         NVMDATL = flashWordArray[i];
  4404  005B  357C               	lslf	FLASH_WriteBlock@i,w
  4405  005C  0775               	addwf	FLASH_WriteBlock@flashWordArray,w
  4406  005D  00F6               	movwf	??_FLASH_WriteBlock
  4407  005E  0876               	movf	??_FLASH_WriteBlock,w
  4408  005F  0086               	movwf	6
  4409  0060  0187               	clrf	7
  4410  0061  0801               	movf	1,w
  4411  0062  009C               	movwf	28	;volatile
  4412  0063                     i1l1136:
  4413                           
  4414                           ;mcc_generated_files/memory.c: 126:         NVMDATH = ((flashWordArray[i] & 0xFF00) >> 8
      +                          );
  4415  0063  357C               	lslf	FLASH_WriteBlock@i,w
  4416  0064  0775               	addwf	FLASH_WriteBlock@flashWordArray,w
  4417  0065  00F6               	movwf	??_FLASH_WriteBlock
  4418  0066  0876               	movf	??_FLASH_WriteBlock,w
  4419  0067  0086               	movwf	6
  4420  0068  0187               	clrf	7
  4421  0069  3F40               	moviw [0]fsr1
  4422  006A  00F7               	movwf	??_FLASH_WriteBlock+1
  4423  006B  3F41               	moviw [1]fsr1
  4424  006C  00F8               	movwf	??_FLASH_WriteBlock+2
  4425  006D  0878               	movf	??_FLASH_WriteBlock+2,w
  4426  006E  009D               	movwf	29	;volatile
  4427  006F                     i1l1138:
  4428                           
  4429                           ;mcc_generated_files/memory.c: 128:         if(i == (32 -1))
  4430  006F  301F               	movlw	31
  4431  0070  067C               	xorwf	FLASH_WriteBlock@i,w
  4432  0071  1D03               	btfss	3,2
  4433  0072  2874               	goto	u12_21
  4434  0073  2875               	goto	u12_20
  4435  0074                     u12_21:
  4436  0074  2876               	goto	i1l1142
  4437  0075                     u12_20:
  4438  0075                     i1l1140:
  4439                           
  4440                           ;mcc_generated_files/memory.c: 129:         {;mcc_generated_files/memory.c: 131:        
      +                               NVMCON1bits.LWLO = 0;
  4441  0075  129E               	bcf	30,5	;volsfr
  4442  0076                     i1l1142:
  4443                           
  4444                           ;mcc_generated_files/memory.c: 134:         NVMCON2 = 0x55;
  4445  0076  3055               	movlw	85
  4446  0077  009F               	movwf	31	;volsfr
  4447                           
  4448                           ;mcc_generated_files/memory.c: 135:         NVMCON2 = 0xAA;
  4449  0078  30AA               	movlw	170
  4450  0079  009F               	movwf	31	;volsfr
  4451  007A                     i1l1144:
  4452                           
  4453                           ;mcc_generated_files/memory.c: 136:         NVMCON1bits.WR = 1;
  4454  007A  149E               	bsf	30,1	;volsfr
  4455  007B                     i1l1146:
  4456                           
  4457                           ;mcc_generated_files/memory.c: 137:         __nop();
  4458  007B  0000               	nop
  4459  007C                     i1l1148:
  4460                           
  4461                           ;mcc_generated_files/memory.c: 138:         __nop();
  4462  007C  0000               	nop
  4463                           
  4464                           ;mcc_generated_files/memory.c: 140:      writeAddr++;
  4465  007D  3001               	movlw	1
  4466  007E  07F3               	addwf	FLASH_WriteBlock@writeAddr,f
  4467  007F  3000               	movlw	0
  4468  0080  3DF4               	addwfc	FLASH_WriteBlock@writeAddr+1,f
  4469  0081                     i1l1150:
  4470                           
  4471                           ;mcc_generated_files/memory.c: 141:     }
  4472  0081  3001               	movlw	1
  4473  0082  00F6               	movwf	??_FLASH_WriteBlock
  4474  0083  0876               	movf	??_FLASH_WriteBlock,w
  4475  0084  07FC               	addwf	FLASH_WriteBlock@i,f
  4476  0085                     i1l1152:
  4477  0085  3020               	movlw	32
  4478  0086  027C               	subwf	FLASH_WriteBlock@i,w
  4479  0087  1C03               	skipc
  4480  0088  288A               	goto	u13_21
  4481  0089  288B               	goto	u13_20
  4482  008A                     u13_21:
  4483  008A  2856               	goto	i1l1130
  4484  008B                     u13_20:
  4485  008B                     i1l34:
  4486                           
  4487                           ;mcc_generated_files/memory.c: 143:     NVMCON1bits.WREN = 0;
  4488  008B  0150               	movlb	16	; select bank16
  4489  008C  111E               	bcf	30,2	;volsfr
  4490  008D                     i1l1154:
  4491                           
  4492                           ;mcc_generated_files/memory.c: 144:     INTCONbits.GIE = GIEBitValue;
  4493  008D  0C7B               	rrf	FLASH_WriteBlock@GIEBitValue,w
  4494  008E  1C03               	skipc
  4495  008F  138B               	bcf	11,7	;volatile
  4496  0090  1803               	skipnc
  4497  0091  178B               	bsf	11,7	;volatile
  4498  0092                     i1l32:
  4499  0092  0008               	return
  4500  0093                     __end_of_FLASH_WriteBlock:
  4501                           
  4502                           	psect	text16
  4503  0126                     __ptext16:	
  4504 ;; *************** function _FLASH_EraseBlock *****************
  4505 ;; Defined at:
  4506 ;;		line 149 in file "mcc_generated_files/memory.c"
  4507 ;; Parameters:    Size  Location     Type
  4508 ;;  startAddr       2    0[COMMON] unsigned short 
  4509 ;; Auto vars:     Size  Location     Type
  4510 ;;  GIEBitValue     1    2[COMMON] unsigned char 
  4511 ;; Return value:  Size  Location     Type
  4512 ;;                  1    wreg      void 
  4513 ;; Registers used:
  4514 ;;		wreg, status,2, status,0
  4515 ;; Tracked objects:
  4516 ;;		On entry : 0/0
  4517 ;;		On exit  : 0/0
  4518 ;;		Unchanged: 0/0
  4519 ;; Data sizes:     COMMON   BANK0   BANK1   BANK2   BANK3   BANK4   BANK5   BANK6   BANK7   BANK8   BANK9  BANK10  BANK1
      +1  BANK12  BANK13  BANK14  BANK15  BANK16  BANK17  BANK18  BANK19  BANK20  BANK21  BANK22  BANK23  BANK24  BANK25
  4520 ;;      Params:         2       0       0       0       0       0       0       0       0       0       0       0       
      +0       0       0       0       0       0       0       0       0       0       0       0       0       0       0
  4521 ;;      Locals:         1       0       0       0       0       0       0       0       0       0       0       0       
      +0       0       0       0       0       0       0       0       0       0       0       0       0       0       0
  4522 ;;      Temps:          0       0       0       0       0       0       0       0       0       0       0       0       
      +0       0       0       0       0       0       0       0       0       0       0       0       0       0       0
  4523 ;;      Totals:         3       0       0       0       0       0       0       0       0       0       0       0       
      +0       0       0       0       0       0       0       0       0       0       0       0       0       0       0
  4524 ;;Total ram usage:        3 bytes
  4525 ;; Hardware stack levels used: 1
  4526 ;; This function calls:
  4527 ;;		Nothing
  4528 ;; This function is called by:
  4529 ;;		_FLASH_WriteBlock
  4530 ;; This function uses a non-reentrant model
  4531 ;;
  4532                           
  4533                           
  4534                           ;psect for function _FLASH_EraseBlock
  4535  0126                     _FLASH_EraseBlock:
  4536  0126                     i1l1084:	
  4537                           ;incstack = 0
  4538                           ; Regs used in _FLASH_EraseBlock: [wreg+status,2+status,0]
  4539                           
  4540                           
  4541                           ;mcc_generated_files/memory.c: 149: void FLASH_EraseBlock(uint16_t startAddr);mcc_genera
      +                          ted_files/memory.c: 150: {;mcc_generated_files/memory.c: 151:     uint8_t GIEBitValue = 
      +                          INTCONbits.GIE;
  4542  0126  3000               	movlw	0
  4543  0127  1B8B               	btfsc	11,7	;volatile
  4544  0128  3001               	movlw	1
  4545  0129  00F2               	movwf	FLASH_EraseBlock@GIEBitValue
  4546  012A                     i1l1086:
  4547                           
  4548                           ;mcc_generated_files/memory.c: 154:     INTCONbits.GIE = 0;
  4549  012A  138B               	bcf	11,7	;volatile
  4550  012B                     i1l1088:
  4551                           
  4552                           ;mcc_generated_files/memory.c: 156:     NVMADRL = (startAddr & 0xFF);
  4553  012B  0870               	movf	FLASH_EraseBlock@startAddr,w
  4554  012C  0150               	movlb	16	; select bank16
  4555  012D  009A               	movwf	26	;volatile
  4556  012E                     i1l1090:
  4557                           
  4558                           ;mcc_generated_files/memory.c: 158:     NVMADRH = ((startAddr & 0xFF00) >> 8);
  4559  012E  0871               	movf	FLASH_EraseBlock@startAddr+1,w
  4560  012F  009B               	movwf	27	;volatile
  4561  0130                     i1l1092:
  4562                           
  4563                           ;mcc_generated_files/memory.c: 161:     NVMCON1bits.NVMREGS = 0;
  4564  0130  131E               	bcf	30,6	;volsfr
  4565  0131                     i1l1094:
  4566                           
  4567                           ;mcc_generated_files/memory.c: 162:     NVMCON1bits.FREE = 1;
  4568  0131  161E               	bsf	30,4	;volsfr
  4569  0132                     i1l1096:
  4570                           
  4571                           ;mcc_generated_files/memory.c: 163:     NVMCON1bits.WREN = 1;
  4572  0132  151E               	bsf	30,2	;volsfr
  4573                           
  4574                           ;mcc_generated_files/memory.c: 166:     NVMCON2 = 0x55;
  4575  0133  3055               	movlw	85
  4576  0134  009F               	movwf	31	;volsfr
  4577                           
  4578                           ;mcc_generated_files/memory.c: 167:     NVMCON2 = 0xAA;
  4579  0135  30AA               	movlw	170
  4580  0136  009F               	movwf	31	;volsfr
  4581  0137                     i1l1098:
  4582                           
  4583                           ;mcc_generated_files/memory.c: 168:     NVMCON1bits.WR = 1;
  4584  0137  149E               	bsf	30,1	;volsfr
  4585  0138                     i1l1100:
  4586                           
  4587                           ;mcc_generated_files/memory.c: 169:     __nop();
  4588  0138  0000               	nop
  4589  0139                     i1l1102:
  4590                           
  4591                           ;mcc_generated_files/memory.c: 170:     __nop();
  4592  0139  0000               	nop
  4593  013A                     i1l1104:
  4594                           
  4595                           ;mcc_generated_files/memory.c: 172:     NVMCON1bits.WREN = 0;
  4596  013A  0150               	movlb	16	; select bank16
  4597  013B  111E               	bcf	30,2	;volsfr
  4598  013C                     i1l1106:
  4599                           
  4600                           ;mcc_generated_files/memory.c: 173:     INTCONbits.GIE = GIEBitValue;
  4601  013C  0C72               	rrf	FLASH_EraseBlock@GIEBitValue,w
  4602  013D  1C03               	skipc
  4603  013E  138B               	bcf	11,7	;volatile
  4604  013F  1803               	skipnc
  4605  0140  178B               	bsf	11,7	;volatile
  4606  0141                     i1l38:
  4607  0141  0008               	return
  4608  0142                     __end_of_FLASH_EraseBlock:
  4609  007E                     btemp	set	126	;btemp
  4610  007E                     int$flags	set	126
  4611  007E                     wtemp0	set	126
  4612                           
  4613                           	psect	config
  4614                           
  4615                           ;Config register CONFIG1 @ 0x8007
  4616                           ;	External Oscillator mode selection bits
  4617                           ;	FEXTOSC = OFF, Oscillator not enabled
  4618                           ;	Power-up default value for COSC bits
  4619                           ;	RSTOSC = HFINT1, HFINTOSC (1MHz)
  4620                           ;	Clock Out Enable bit
  4621                           ;	CLKOUTEN = OFF, CLKOUT function is disabled; i/o or oscillator function on OSC2
  4622                           ;	Clock Switch Enable bit
  4623                           ;	CSWEN = ON, Writing to NOSC and NDIV is allowed
  4624                           ;	Fail-Safe Clock Monitor Enable bit
  4625                           ;	FCMEN = ON, FSCM timer enabled
  4626  8007                     	org	32775
  4627  8007  3FEC               	dw	16364
  4628                           
  4629                           ;Config register CONFIG2 @ 0x8008
  4630                           ;	Master Clear Enable bit
  4631                           ;	MCLRE = ON, MCLR pin is Master Clear function
  4632                           ;	Power-up Timer Enable bit
  4633                           ;	PWRTS = OFF, PWRT disabled
  4634                           ;	Low-Power BOR enable bit
  4635                           ;	LPBOREN = OFF, ULPBOR disabled
  4636                           ;	Brown-out reset enable bits
  4637                           ;	BOREN = ON, Brown-out Reset Enabled, SBOREN bit is ignored
  4638                           ;	Brown-out Reset Voltage Selection
  4639                           ;	BORV = LO, Brown-out Reset Voltage (VBOR) set to 2.45V
  4640                           ;	Zero-cross detect disable
  4641                           ;	ZCD = OFF, Zero-cross detect circuit is disabled at POR.
  4642                           ;	Peripheral Pin Select one-way control
  4643                           ;	PPS1WAY = ON, The PPSLOCK bit can be cleared and set only once in software
  4644                           ;	Stack Overflow/Underflow Reset Enable bit
  4645                           ;	STVREN = ON, Stack Overflow or Underflow will cause a reset
  4646  8008                     	org	32776
  4647  8008  3FFF               	dw	16383
  4648                           
  4649                           ;Config register CONFIG3 @ 0x8009
  4650                           ;	WDT Period Select bits
  4651                           ;	WDTCPS = WDTCPS_31, Divider ratio 1:65536; software control of WDTPS
  4652                           ;	WDT operating mode
  4653                           ;	WDTE = OFF, WDT Disabled, SWDTEN is ignored
  4654                           ;	WDT Window Select bits
  4655                           ;	WDTCWS = WDTCWS_7, window always open (100%); software control; keyed access not requi
      +                          red
  4656                           ;	WDT input clock selector
  4657                           ;	WDTCCS = SC, Software Control
  4658  8009                     	org	32777
  4659  8009  3F9F               	dw	16287
  4660                           
  4661                           ;Config register CONFIG4 @ 0x800A
  4662                           ;	Boot Block Size Selection bits
  4663                           ;	BBSIZE = BB512, 512 words boot block size
  4664                           ;	Boot Block Enable bit
  4665                           ;	BBEN = OFF, Boot Block disabled
  4666                           ;	SAF Enable bit
  4667                           ;	SAFEN = OFF, SAF disabled
  4668                           ;	Application Block Write Protection bit
  4669                           ;	WRTAPP = OFF, Application Block not write protected
  4670                           ;	Boot Block Write Protection bit
  4671                           ;	WRTB = OFF, Boot Block not write protected
  4672                           ;	Configuration Register Write Protection bit
  4673                           ;	WRTC = OFF, Configuration Register not write protected
  4674                           ;	Data EEPROM write protection bit
  4675                           ;	WRTD = OFF, Data EEPROM NOT write protected
  4676                           ;	Storage Area Flash Write Protection bit
  4677                           ;	WRTSAF = OFF, SAF not write protected
  4678                           ;	Low Voltage Programming Enable bit
  4679                           ;	LVP = OFF, High Voltage on MCLR/Vpp must be used for programming
  4680  800A                     	org	32778
  4681  800A  1FFF               	dw	8191
  4682                           
  4683                           ;Config register CONFIG5 @ 0x800B
  4684                           ;	UserNVM Program memory code protection bit
  4685                           ;	CP = OFF, UserNVM code protection disabled
  4686  800B                     	org	32779
  4687  800B  3FFF               	dw	16383

Data Sizes:
    Strings     0
    Constant    0
    Data        4
    BSS         66
    Persistent  34
    Stack       0

Auto Spaces:
    Space          Size  Autos    Used
    COMMON           14     14      14
    BANK0            80     15      23
    BANK1            80      0      64
    BANK2            80      0       0
    BANK3            80      0       0
    BANK4            80      0       0
    BANK5            80      0       0
    BANK6            80      0       0
    BANK7            80      0       0
    BANK8            80      0       0
    BANK9            80      0       0
    BANK10           80      0       0
    BANK11           80      0       0
    BANK12           80      0       0
    BANK13           80      0       0
    BANK14           80      0       0
    BANK15           80      0       0
    BANK16           80      0       0
    BANK17           80      0       0
    BANK18           80      0       0
    BANK19           80      0       0
    BANK20           80      0       0
    BANK21           80      0       0
    BANK22           80      0       0
    BANK23           80      0       0
    BANK24           80      0       0
    BANK25           32      0       0

Pointer List with Targets:

    IOCAF5_SetInterruptHandler@InterruptHandler	PTR FTN()void  size(2) Largest target is 1
		 -> changeflash(), IOCAF5_DefaultInterruptHandler(), 

    IOCAF5_InterruptHandler	PTR FTN()void  size(2) Largest target is 1
		 -> changeflash(), Absolute function(), IOCAF5_DefaultInterruptHandler(), 

    FLASH_WriteBlock@flashWordArray	PTR unsigned short  size(1) Largest target is 64
		 -> buffer(BANK1[64]), 

    FLASH_WriteWord@ramBuf	PTR unsigned short  size(1) Largest target is 64
		 -> buffer(BANK1[64]), 


Critical Paths under _main in COMMON

    None.

Critical Paths under _INTERRUPT_InterruptManager in COMMON

    _changeflash->_FLASH_WriteWord
    _FLASH_WriteWord->_FLASH_WriteBlock
    _FLASH_WriteBlock->_FLASH_EraseBlock

Critical Paths under _main in BANK0

    _main->_fengming
    _fengming->_FLASH_ReadWord
    _PIN_MANAGER_Initialize->_IOCAF5_SetInterruptHandler

Critical Paths under _INTERRUPT_InterruptManager in BANK0

    _IOCAF5_ISR->_changeflash
    _changeflash->_FLASH_WriteWord

Critical Paths under _main in BANK1

    None.

Critical Paths under _INTERRUPT_InterruptManager in BANK1

    None.

Critical Paths under _main in BANK2

    None.

Critical Paths under _INTERRUPT_InterruptManager in BANK2

    None.

Critical Paths under _main in BANK3

    None.

Critical Paths under _INTERRUPT_InterruptManager in BANK3

    None.

Critical Paths under _main in BANK4

    None.

Critical Paths under _INTERRUPT_InterruptManager in BANK4

    None.

Critical Paths under _main in BANK5

    None.

Critical Paths under _INTERRUPT_InterruptManager in BANK5

    None.

Critical Paths under _main in BANK6

    None.

Critical Paths under _INTERRUPT_InterruptManager in BANK6

    None.

Critical Paths under _main in BANK7

    None.

Critical Paths under _INTERRUPT_InterruptManager in BANK7

    None.

Critical Paths under _main in BANK8

    None.

Critical Paths under _INTERRUPT_InterruptManager in BANK8

    None.

Critical Paths under _main in BANK9

    None.

Critical Paths under _INTERRUPT_InterruptManager in BANK9

    None.

Critical Paths under _main in BANK10

    None.

Critical Paths under _INTERRUPT_InterruptManager in BANK10

    None.

Critical Paths under _main in BANK11

    None.

Critical Paths under _INTERRUPT_InterruptManager in BANK11

    None.

Critical Paths under _main in BANK12

    None.

Critical Paths under _INTERRUPT_InterruptManager in BANK12

    None.

Critical Paths under _main in BANK13

    None.

Critical Paths under _INTERRUPT_InterruptManager in BANK13

    None.

Critical Paths under _main in BANK14

    None.

Critical Paths under _INTERRUPT_InterruptManager in BANK14

    None.

Critical Paths under _main in BANK15

    None.

Critical Paths under _INTERRUPT_InterruptManager in BANK15

    None.

Critical Paths under _main in BANK16

    None.

Critical Paths under _INTERRUPT_InterruptManager in BANK16

    None.

Critical Paths under _main in BANK17

    None.

Critical Paths under _INTERRUPT_InterruptManager in BANK17

    None.

Critical Paths under _main in BANK18

    None.

Critical Paths under _INTERRUPT_InterruptManager in BANK18

    None.

Critical Paths under _main in BANK19

    None.

Critical Paths under _INTERRUPT_InterruptManager in BANK19

    None.

Critical Paths under _main in BANK20

    None.

Critical Paths under _INTERRUPT_InterruptManager in BANK20

    None.

Critical Paths under _main in BANK21

    None.

Critical Paths under _INTERRUPT_InterruptManager in BANK21

    None.

Critical Paths under _main in BANK22

    None.

Critical Paths under _INTERRUPT_InterruptManager in BANK22

    None.

Critical Paths under _main in BANK23

    None.

Critical Paths under _INTERRUPT_InterruptManager in BANK23

    None.

Critical Paths under _main in BANK24

    None.

Critical Paths under _INTERRUPT_InterruptManager in BANK24

    None.

Critical Paths under _main in BANK25

    None.

Critical Paths under _INTERRUPT_InterruptManager in BANK25

    None.

Call Graph Tables:

 ---------------------------------------------------------------------------------
 (Depth) Function   	        Calls       Base Space   Used Autos Params    Refs
 ---------------------------------------------------------------------------------
 (0) _main                                                 0     0      0     564
         _IOCAF5_SetInterruptHandler
                  _SYSTEM_Initialize
                           _fengming
 ---------------------------------------------------------------------------------
 (1) _fengming                                             2     2      0     216
                                             13 BANK0      2     2      0
                     _FLASH_ReadWord
 ---------------------------------------------------------------------------------
 (2) _FLASH_ReadWord                                       3     1      2     193
                                             10 BANK0      3     1      2
 ---------------------------------------------------------------------------------
 (1) _SYSTEM_Initialize                                    0     0      0     174
              _OSCILLATOR_Initialize
             _PIN_MANAGER_Initialize
                     _PMD_Initialize
 ---------------------------------------------------------------------------------
 (2) _PMD_Initialize                                       0     0      0       0
 ---------------------------------------------------------------------------------
 (2) _PIN_MANAGER_Initialize                               0     0      0     174
         _IOCAF5_SetInterruptHandler
 ---------------------------------------------------------------------------------
 (3) _IOCAF5_SetInterruptHandler                           2     0      2     174
                                             10 BANK0      2     0      2
 ---------------------------------------------------------------------------------
 (2) _OSCILLATOR_Initialize                                0     0      0       0
 ---------------------------------------------------------------------------------
 Estimated maximum stack depth 3
 ---------------------------------------------------------------------------------
 (Depth) Function   	        Calls       Base Space   Used Autos Params    Refs
 ---------------------------------------------------------------------------------
 (4) _INTERRUPT_InterruptManager                           0     0      0    1219
                    _PIN_MANAGER_IOC
 ---------------------------------------------------------------------------------
 (5) _PIN_MANAGER_IOC                                      0     0      0    1219
                         _IOCAF5_ISR
 ---------------------------------------------------------------------------------
 (6) _IOCAF5_ISR                                           0     0      0    1219
                   Absolute function *
     _IOCAF5_DefaultInterruptHandler *
                        _changeflash *
 ---------------------------------------------------------------------------------
 (7) _changeflash                                          1     1      0    1219
                                              9 BANK0      1     1      0
                    _FLASH_WriteWord
 ---------------------------------------------------------------------------------
 (8) _FLASH_WriteWord                                     10     5      5    1219
                                             13 COMMON     1     1      0
                                              0 BANK0      9     4      5
                   _FLASH_WriteBlock
                   i1_FLASH_ReadWord
 ---------------------------------------------------------------------------------
 (9) i1_FLASH_ReadWord                                     3     1      2      93
                                              0 COMMON     3     1      2
 ---------------------------------------------------------------------------------
 (9) _FLASH_WriteBlock                                    10     7      3     608
                                              3 COMMON    10     7      3
                   _FLASH_EraseBlock
 ---------------------------------------------------------------------------------
 (10) _FLASH_EraseBlock                                    3     1      2     143
                                              0 COMMON     3     1      2
 ---------------------------------------------------------------------------------
 (7) _IOCAF5_DefaultInterruptHandler                       0     0      0       0
 ---------------------------------------------------------------------------------
 (7) Absolute function(Fake)                               0     0      0       0
 ---------------------------------------------------------------------------------
 Estimated maximum stack depth 10
 ---------------------------------------------------------------------------------

 Call Graph Graphs:

 _main (ROOT)
   _IOCAF5_SetInterruptHandler
   _SYSTEM_Initialize
     _OSCILLATOR_Initialize
     _PIN_MANAGER_Initialize
       _IOCAF5_SetInterruptHandler
     _PMD_Initialize
   _fengming
     _FLASH_ReadWord

 _INTERRUPT_InterruptManager (ROOT)
   _PIN_MANAGER_IOC
     _IOCAF5_ISR
       Absolute function(Fake) *
       _IOCAF5_DefaultInterruptHandler *
       _changeflash *
         _FLASH_WriteWord
           _FLASH_WriteBlock
             _FLASH_EraseBlock
           i1_FLASH_ReadWord

 Address spaces:
Name               Size   Autos  Total    Cost      Usage
BIGRAM             7F0      0       0       0        0.0%
EEDATA             100      0       0       0        0.0%
NULL                 0      0       0       0        0.0%
CODE                 0      0       0       0        0.0%
BITCOMMON            E      0       0       1        0.0%
BITSFR0              0      0       0       1        0.0%
SFR0                 0      0       0       1        0.0%
COMMON               E      E       E       2      100.0%
BITSFR1              0      0       0       2        0.0%
SFR1                 0      0       0       2        0.0%
BITSFR2              0      0       0       3        0.0%
SFR2                 0      0       0       3        0.0%
STACK                0      0       0       3        0.0%
BITBANK0            50      0       0       4        0.0%
BITSFR3              0      0       0       4        0.0%
SFR3                 0      0       0       4        0.0%
BANK0               50      F      17       5       28.7%
BITSFR4              0      0       0       5        0.0%
SFR4                 0      0       0       5        0.0%
BITSFR5              0      0       0       6        0.0%
SFR5                 0      0       0       6        0.0%
ABS                  0      0      65       6        0.0%
BITBANK1            50      0       0       7        0.0%
BITSFR6              0      0       0       7        0.0%
SFR6                 0      0       0       7        0.0%
BANK1               50      0      40       8       80.0%
BITSFR7              0      0       0       8        0.0%
SFR7                 0      0       0       8        0.0%
BITBANK2            50      0       0       9        0.0%
BITSFR8              0      0       0       9        0.0%
SFR8                 0      0       0       9        0.0%
BANK2               50      0       0      10        0.0%
BITSFR9              0      0       0      10        0.0%
SFR9                 0      0       0      10        0.0%
BITBANK3            50      0       0      11        0.0%
BITSFR10             0      0       0      11        0.0%
SFR10                0      0       0      11        0.0%
BANK3               50      0       0      12        0.0%
BITSFR11             0      0       0      12        0.0%
SFR11                0      0       0      12        0.0%
BITBANK4            50      0       0      13        0.0%
BITSFR12             0      0       0      13        0.0%
SFR12                0      0       0      13        0.0%
BANK4               50      0       0      14        0.0%
BITSFR13             0      0       0      14        0.0%
SFR13                0      0       0      14        0.0%
BITBANK5            50      0       0      15        0.0%
BITSFR14             0      0       0      15        0.0%
SFR14                0      0       0      15        0.0%
BANK5               50      0       0      16        0.0%
BITSFR15             0      0       0      16        0.0%
SFR15                0      0       0      16        0.0%
BITBANK6            50      0       0      17        0.0%
BITSFR16             0      0       0      17        0.0%
SFR16                0      0       0      17        0.0%
BANK6               50      0       0      18        0.0%
BITSFR17             0      0       0      18        0.0%
SFR17                0      0       0      18        0.0%
BITBANK7            50      0       0      19        0.0%
BITSFR18             0      0       0      19        0.0%
SFR18                0      0       0      19        0.0%
BANK7               50      0       0      20        0.0%
BITSFR19             0      0       0      20        0.0%
SFR19                0      0       0      20        0.0%
BITBANK8            50      0       0      21        0.0%
BITSFR20             0      0       0      21        0.0%
SFR20                0      0       0      21        0.0%
BANK8               50      0       0      22        0.0%
BITSFR21             0      0       0      22        0.0%
SFR21                0      0       0      22        0.0%
BITBANK9            50      0       0      23        0.0%
BITSFR22             0      0       0      23        0.0%
SFR22                0      0       0      23        0.0%
BANK9               50      0       0      24        0.0%
BITSFR23             0      0       0      24        0.0%
SFR23                0      0       0      24        0.0%
BITBANK10           50      0       0      25        0.0%
BITSFR24             0      0       0      25        0.0%
SFR24                0      0       0      25        0.0%
BANK10              50      0       0      26        0.0%
BITSFR25             0      0       0      26        0.0%
SFR25                0      0       0      26        0.0%
BITBANK11           50      0       0      27        0.0%
BITSFR26             0      0       0      27        0.0%
SFR26                0      0       0      27        0.0%
BANK11              50      0       0      28        0.0%
BITSFR27             0      0       0      28        0.0%
SFR27                0      0       0      28        0.0%
BITBANK12           50      0       0      29        0.0%
BITSFR28             0      0       0      29        0.0%
SFR28                0      0       0      29        0.0%
BANK12              50      0       0      30        0.0%
BITSFR29             0      0       0      30        0.0%
SFR29                0      0       0      30        0.0%
BITBANK13           50      0       0      31        0.0%
BITSFR30             0      0       0      31        0.0%
SFR30                0      0       0      31        0.0%
BANK13              50      0       0      32        0.0%
BITSFR31             0      0       0      32        0.0%
SFR31                0      0       0      32        0.0%
BITBANK14           50      0       0      33        0.0%
BITSFR32             0      0       0      33        0.0%
SFR32                0      0       0      33        0.0%
BANK14              50      0       0      34        0.0%
BITSFR33             0      0       0      34        0.0%
SFR33                0      0       0      34        0.0%
BITBANK15           50      0       0      35        0.0%
BITSFR34             0      0       0      35        0.0%
SFR34                0      0       0      35        0.0%
BANK15              50      0       0      36        0.0%
BITSFR35             0      0       0      36        0.0%
SFR35                0      0       0      36        0.0%
BITBANK16           50      0       0      37        0.0%
BITSFR36             0      0       0      37        0.0%
SFR36                0      0       0      37        0.0%
BANK16              50      0       0      38        0.0%
BITSFR37             0      0       0      38        0.0%
SFR37                0      0       0      38        0.0%
BITBANK17           50      0       0      39        0.0%
BITSFR38             0      0       0      39        0.0%
SFR38                0      0       0      39        0.0%
BANK17              50      0       0      40        0.0%
BITSFR39             0      0       0      40        0.0%
SFR39                0      0       0      40        0.0%
BITBANK18           50      0       0      41        0.0%
BITSFR40             0      0       0      41        0.0%
SFR40                0      0       0      41        0.0%
BANK18              50      0       0      42        0.0%
BITSFR41             0      0       0      42        0.0%
SFR41                0      0       0      42        0.0%
BITBANK19           50      0       0      43        0.0%
BITSFR42             0      0       0      43        0.0%
SFR42                0      0       0      43        0.0%
BANK19              50      0       0      44        0.0%
BITSFR43             0      0       0      44        0.0%
SFR43                0      0       0      44        0.0%
BITBANK20           50      0       0      45        0.0%
BITSFR44             0      0       0      45        0.0%
SFR44                0      0       0      45        0.0%
BANK20              50      0       0      46        0.0%
BITSFR45             0      0       0      46        0.0%
SFR45                0      0       0      46        0.0%
BITBANK21           50      0       0      47        0.0%
BITSFR46             0      0       0      47        0.0%
SFR46                0      0       0      47        0.0%
BANK21              50      0       0      48        0.0%
BITSFR47             0      0       0      48        0.0%
SFR47                0      0       0      48        0.0%
BITBANK22           50      0       0      49        0.0%
BITSFR48             0      0       0      49        0.0%
SFR48                0      0       0      49        0.0%
BANK22              50      0       0      50        0.0%
BITSFR49             0      0       0      50        0.0%
SFR49                0      0       0      50        0.0%
BITBANK23           50      0       0      51        0.0%
BITSFR50             0      0       0      51        0.0%
SFR50                0      0       0      51        0.0%
BANK23              50      0       0      52        0.0%
BITSFR51             0      0       0      52        0.0%
SFR51                0      0       0      52        0.0%
BITBANK24           50      0       0      53        0.0%
BITSFR52             0      0       0      53        0.0%
SFR52                0      0       0      53        0.0%
BANK24              50      0       0      54        0.0%
BITSFR53             0      0       0      54        0.0%
SFR53                0      0       0      54        0.0%
BITBANK25           20      0       0      55        0.0%
BITSFR54             0      0       0      55        0.0%
SFR54                0      0       0      55        0.0%
BANK25              20      0       0      56        0.0%
BITSFR55             0      0       0      56        0.0%
SFR55                0      0       0      56        0.0%
BITSFR56             0      0       0      57        0.0%
SFR56                0      0       0      57        0.0%
DATA                 0      0      65      57        0.0%
BITSFR57             0      0       0      58        0.0%
SFR57                0      0       0      58        0.0%
BITSFR58             0      0       0      59        0.0%
SFR58                0      0       0      59        0.0%
BITSFR59             0      0       0      60        0.0%
SFR59                0      0       0      60        0.0%
BITSFR60             0      0       0      61        0.0%
SFR60                0      0       0      61        0.0%
BITSFR61             0      0       0      62        0.0%
SFR61                0      0       0      62        0.0%
BITSFR62             0      0       0      63        0.0%
SFR62                0      0       0      63        0.0%
BITSFR63             0      0       0      64        0.0%
SFR63                0      0       0      64        0.0%


Microchip Technology PIC Macro Assembler V2.32 build 20210201212658 
Symbol Table                                                                                   Mon Oct 25 16:45:12 2021

                                         _i 0031                                          l23 0125  
                                       l210 0170                                         l203 016C  
                                       l108 0105                                         l205 016D  
                                       l119 01DA                                         l215 0194  
                                       l208 016F                                         l170 01B2  
                                       l173 01C5                                         l176 01BC  
                                       u170 016C                                         u171 016B  
                   __size_of_PMD_Initialize 000A                                         wreg 0009  
                          ?_FLASH_WriteWord 0020          __end_of_IOCAF5_SetInterruptHandler 01DB  
                _IOCAF5_SetInterruptHandler 01D5              FLASH_WriteBlock@flashWordArray 0075  
                                      l1210 010F                                        l1220 0117  
                                      l1212 0113                                        l1204 0106  
                                      l1300 018A                                        l1230 00DB  
                                      l1222 011D                                        l1214 0114  
                                      l1206 010B                                        l1302 018B  
                                      l1240 00EC                                        l1232 00DD  
                                      l1216 0115                                        l1208 010C  
                                      l1250 00F6                                        l1242 00EE  
                                      l1234 00DF                                        l1226 00D5  
                                      l1218 0116                                        l1260 0103  
                                      l1252 00F8                                        l1244 00F0  
                                      l1236 00E2                                        l1228 00D9  
                                      l1270 01BD                                        l1254 00F9  
                                      l1246 00F2                                        l1238 00E4  
                                      l1272 01C0                                        l1256 00FA  
                                      l1248 00F4                                        l1274 01C1  
                                      l1258 00FB                                        l1282 01A9  
                                      l1290 0168                                        l1276 01C4  
                                      l1268 01B3                                        l1284 01AC  
                                      l1198 01D5                                        l1286 01AF  
                                      l1288 015B                                        l1298 0187  
                                      _LATA 0018                                        _LATB 0019  
                                      _LATC 001A                                        _PMD0 0796  
                                      _PMD1 0797                                        _PMD2 0798  
                                      i1l31 0049                                        i1l23 015A  
                                      _PMD3 0799                                        i1l32 0092  
                                      _PMD4 079A                                        _PMD5 079B  
                                      i1l34 008B                                        _PMD6 079C  
                                      _PMD7 079D                                        i1l28 00D4  
                                      i1l38 0141                                        _WPUA 1F39  
                                      _WPUB 1F44                                        _WPUC 1F4F  
                                      _main 0187                                        fsr0h 0005  
                                      fsr1h 0007                                        indf0 0000  
                                      fsr0l 0004                                        indf1 0001  
                                      fsr1l 0006                                        btemp 007E  
                         ?_FLASH_WriteBlock 0073                                        start 0014  
                        ??_FLASH_WriteBlock 0076              __size_of_OSCILLATOR_Initialize 0009  
                       __size_of_IOCAF5_ISR 000F               __end_of_OSCILLATOR_Initialize 01C6  
                                     ?_main 0070                                       i1l112 01CE  
                                     i1l122 01DF                                       i1l116 01A8  
                                     i1l135 0012                                       i1l197 0186  
                                     u11_20 0048                                       u11_21 0047  
                                     _OSCEN 0891                                       u11_25 0044  
                                     u12_20 0075                                       u12_21 0074  
                                     u13_20 008B                                       u13_21 008A  
                                     u14_20 00BF                                       u14_21 00BE  
                                     u15_20 01A1                                       u15_21 01A0  
                                     u16_20 01CB                                       u16_21 01CA  
                                     u18_20 000B                                       u18_21 000A  
                                     u19_20 000F                                       u19_21 000E  
                                     _TRISA 0012                                       _TRISB 0013  
                                     _TRISC 0014                     __end_of_PIN_MANAGER_IOC 01CF  
                      __size_of_changeflash 0016                                       _voice 0035  
                                     pclath 000A                                       status 0003  
                                     wtemp0 007E                             __initialization 0016  
                              __end_of_main 019A                 ?_INTERRUPT_InterruptManager 0070  
                                    ??_main 002F                           ?i1_FLASH_ReadWord 0070  
                   __size_of_FLASH_ReadWord 0020                          ??i1_FLASH_ReadWord 0072  
                 FLASH_WriteBlock@writeAddr 0073                                      _ANSELA 1F38  
                                    _ANSELB 1F43                                      _ANSELC 1F4E  
                                    i1l1100 0138                                      i1l1102 0139  
                                    i1l1110 003A                                      i1l1104 013A  
                                    i1l1120 0053                                      i1l1112 003E  
                                    i1l1200 0171                                      i1l1106 013C  
                                    i1l1130 0056                                      i1l1122 0054  
                                    i1l1202 0181                                      i1l1140 0075  
                                    i1l1132 0059                                      i1l1124 0055  
                                    i1l1116 004A                                      i1l1108 0034  
                                    i1l1150 0081                                      i1l1142 0076  
                                    i1l1134 005B                                      i1l1118 0051  
                                    i1l1152 0085                                      i1l1144 007A  
                                    i1l1136 0063                                      i1l1160 0146  
                                    i1l1090 012E                                      i1l1154 008D  
                                    i1l1146 007B                                      i1l1138 006F  
                                    i1l1170 014E                                      i1l1162 0147  
                                    i1l1092 0130                                      i1l1084 0126  
                                    i1l1148 007C                                      i1l1172 014F  
                                    i1l1164 014A                                      i1l1180 0093  
                                    i1l1094 0131                                      i1l1086 012A  
                                    i1l1174 0150                                      i1l1166 014C  
                                    i1l1158 0142                                      i1l1190 00B5  
                                    i1l1182 009A                                      i1l1262 019A  
                                    i1l1096 0132                                      i1l1088 012B  
                                    i1l1176 0155                                      i1l1168 014D  
                                    i1l1192 00B9                                      i1l1264 01A1  
                                    i1l1280 01CB                                      _ODCONA 1F3A  
                                    i1l1098 0137                                      i1l1194 00BF  
                                    i1l1266 01A6                                      _ODCONB 1F45  
                                    _ODCONC 1F50                                      i1l1196 00C9  
                                    i1l1188 00A0                                      i1l1292 0006  
                                    i1l1278 01C6                                      i1l1294 000B  
                                    i1l1296 000F                                      _INLVLA 1F3C  
                                    _INLVLB 1F47                                      _INLVLC 1F52  
                 __size_of_FLASH_EraseBlock 001C                                      _OSCFRQ 0893  
                          __end_of_fengming 0171               FLASH_WriteWord@blockStartAddr 0026  
                                    _buffer 00A0                         FLASH_WriteWord@word 0023  
                            _PMD_Initialize 01B3                     FLASH_ReadWord@flashAddr 002A  
IOCAF5_SetInterruptHandler@InterruptHandler 002A                            ?_PIN_MANAGER_IOC 0070  
                              ??_IOCAF5_ISR 007E                           _SYSTEM_Initialize 01A9  
                 i1FLASH_ReadWord@flashAddr 0070                     __end_of__initialization 0030  
                        ?_SYSTEM_Initialize 0070                              __pcstackCOMMON 0070  
                              __pidataBANK0 01DB                         ??_SYSTEM_Initialize 002C  
                          FLASH_WriteWord@i 0028                      __end_of_PMD_Initialize 01BD  
                        __end_of_IOCAF5_ISR 01A9                 FLASH_WriteBlock@GIEBitValue 007B  
               ?_IOCAF5_SetInterruptHandler 002A                   __end_of_SYSTEM_Initialize 01B3  
                                __pbssBANK0 0035                                  __pbssBANK1 00A0  
          ??_IOCAF5_DefaultInterruptHandler 0070             ?_IOCAF5_DefaultInterruptHandler 0070  
                   _IOCAF5_InterruptHandler 0033                                  __pmaintext 0187  
                                __pintentry 0004                             ?_PMD_Initialize 0070  
                 __size_of_FLASH_WriteBlock 005F                              _FLASH_ReadWord 0106  
                                   _OSCCON1 088D                                     _OSCCON3 088F  
                                   _NVMADRH 081B                                     _NVMADRL 081A  
                                   _NVMDATH 081D                                     _OSCTUNE 0892  
                                   _NVMDATL 081C                                     _NVMCON2 081F  
                                   _SLRCONA 1F3B                                     _SLRCONB 1F46  
                                   _SLRCONC 1F51                                   ?_fengming 0070  
                          _FLASH_EraseBlock 0126                    __size_of_FLASH_WriteWord 0042  
                    __end_of_FLASH_ReadWord 0126                                     __ptext1 015B  
                                   __ptext2 0106                                     __ptext3 01A9  
                                   __ptext4 01B3                                     __ptext5 00D5  
                                   __ptext6 01D5                                     __ptext7 01BD  
                                   __ptext9 01C6                       _OSCILLATOR_Initialize 01BD  
                             ??_changeflash 0029                    ??_PIN_MANAGER_Initialize 002C  
                                 _IOCAFbits 1F3F                                   _IOCANbits 1F3E  
                                 _IOCAPbits 1F3D                                  ??_fengming 002D  
                __size_of_SYSTEM_Initialize 000A                                     clrloop0 01D0  
                      end_of_initialization 0030                   __size_ofi1_FLASH_ReadWord 0019  
                 FLASH_ReadWord@GIEBitValue 002C                             ?_FLASH_ReadWord 002A  
                       __end_of_changeflash 0187                           FLASH_WriteBlock@i 007C  
                         ??_FLASH_WriteWord 007D                            _FLASH_WriteBlock 0034  
                    ?_OSCILLATOR_Initialize 0070                         start_initialization 0016  
           __size_of_PIN_MANAGER_Initialize 0031                 i1FLASH_ReadWord@GIEBitValue 0072  
                  __size_of_PIN_MANAGER_IOC 0009                            ??_PMD_Initialize 002A  
                               __pdataBANK0 002F                 FLASH_EraseBlock@GIEBitValue 0072  
                  __end_of_FLASH_EraseBlock 0142      __end_of_IOCAF5_DefaultInterruptHandler 01E0  
   __size_of_IOCAF5_DefaultInterruptHandler 0001              _IOCAF5_DefaultInterruptHandler 01DF  
                                 ___latbits 0003                               __pcstackBANK0 0020  
                               _changeflash 0171                           __size_of_fengming 0016  
                          i1_FLASH_ReadWord 0142                                   __pnvBANK0 0033  
                    _PIN_MANAGER_Initialize 00D5                                   _flashAddr 002F  
              ??_INTERRUPT_InterruptManager 007E                    FLASH_WriteWord@flashAddr 0020  
            FLASH_WriteBlock@blockStartAddr 0079                                    _LATBbits 0019  
                                 clear_ram0 01CF                                    _PIE0bits 0716  
       __size_of_INTERRUPT_InterruptManager 0010                                    _PIR0bits 070C  
                 FLASH_EraseBlock@startAddr 0070                            ??_FLASH_ReadWord 002C  
                         ??_PIN_MANAGER_IOC 007E                             _FLASH_WriteWord 0093  
                  __end_of_FLASH_WriteBlock 0093                     ??_OSCILLATOR_Initialize 002A  
                                  __ptext10 019A                                    __ptext11 01DF  
                                  __ptext12 0171                                    __ptext13 0093  
                                  __ptext14 0142                                    __ptext15 0034  
                                  __ptext16 0126                ??_IOCAF5_SetInterruptHandler 002C  
                                  _fengming 015B                       FLASH_WriteWord@ramBuf 0022  
                     FLASH_WriteWord@offset 0025                                  _IOCAF5_ISR 019A  
                             __size_of_main 0013                                    int$flags 007E  
        __end_of_INTERRUPT_InterruptManager 0014                  _INTERRUPT_InterruptManager 0004  
       __size_of_IOCAF5_SetInterruptHandler 0006                           ?_FLASH_EraseBlock 0070  
                  __end_ofi1_FLASH_ReadWord 015B                          ??_FLASH_EraseBlock 0072  
                                _INTCONbits 000B                     __end_of_FLASH_WriteWord 00D5  
                               _NVMCON1bits 081E                                ?_changeflash 0070  
                                  intlevel1 0000                     ?_PIN_MANAGER_Initialize 0070  
                             fengming@voice 002D                                 ?_IOCAF5_ISR 0070  
            __end_of_PIN_MANAGER_Initialize 0106                             _PIN_MANAGER_IOC 01C6  
